(lp1
S'nosql'
p2
aS'hadoop'
p3
aS'mysql'
p4
aS'go'
p5
aS'hbase'
p6
aS'd3'
p7
aS'visualization'
p8
aS'probability'
p9
aS'big data'
p10
aS'critical thinking'
p11
aS'improvement'
p12
aS'statistical software'
p13
aS'matlab'
p14
aS'python'
p15
aS'data collection'
p16
aS'linux'
p17
aS'mapreduce'
p18
aS'hive'
p19
aS'security'
p20
aS'intelligence'
p21
aS'testing'
p22
aS'segmentation'
p23
aS'analytics'
p24
aS'defense'
p25
aS'design'
p26
aS'pricing'
p27
aVstatistic
p28
aS'econometrics'
p29
aS'hdfs'
p30
aS'scala'
p31
aS'saas'
p32
aS'integration'
p33
aS'access'
p34
aS'optimization'
p35
aS'teradata'
p36
aS'processing'
p37
aS'customer service'
p38
aS'javascript'
p39
aS'git'
p40
aS'apache'
p41
aS'modeling'
p42
aS'spark'
p43
aS'manufacturing'
p44
aS'b2b'
p45
aS'c'
aS'simulation'
p46
aS'advertising'
p47
aS'microsoft office'
p48
aS'powerpoint'
p49
aS'data integration'
p50
aS'forecasting'
p51
aS'classification'
p52
aS'communication'
p53
aS'bioinformatics'
p54
aS'unix'
p55
aS'data warehousing'
p56
aS'troubleshooting'
p57
aS'data mining'
p58
aS'strategy'
p59
aS'experimentation'
p60
aS'clustering'
p61
aS'management'
p62
aS'java'
p63
aS'deep learning'
p64
aS'perl'
p65
aS'quality assurance'
p66
aS'ruby'
p67
aS'fraud'
p68
aS'word'
p69
aS'machine learning'
p70
aS'data architecture'
p71
aS'r'
aS'dashboard'
p72
aVoperation research
p73
aS'scripting'
p74
aS'computing'
p75
aS'pig'
p76
aS'hardware'
p77
aS'cluster'
p78
aS'engineering'
p79
aS'spss'
p80
aS'regression'
p81
aS'cassandra'
p82
aS'excel'
p83
aS'tableau'
p84
aS'html'
p85
aS'mathematics'
p86
aS'development'
p87
aS'mongodb'
p88
aS'scrum'
p89
aS'aws'
p90
aS'automation'
p91
aS'sql'
p92
aVphysic
p93
aValgorithm
p94
aVdatabase
p95
aS'analysis'
p96
aS'command'
p97
aS'oracle'
p98
aVsa
p99
a.