(dp1
I8192
S'n a'
p2
sI1
S'virgin pulse'
p3
sI8194
S'n a'
p4
sI4
S'aci worldwide'
p5
sI5
S'brown university'
p6
sI8
S'brown university'
p7
sI9
S'virgin pulse'
p8
sI10
S'brown university'
p9
sI8204
S'capital one'
p10
sI8205
S'mckinsey'
p11
sI8207
S'waste management'
p12
sI16
S'grant thornton llp'
p13
sI17
S'kpmg'
p14
sI18
S'the washington post'
p15
sI8213
S'texas tech university'
p16
sI23
S'american institutes research'
p17
sI8217
S'honeywell'
p18
sI26
S'axiologic solutions'
p19
sI28
S'continuum'
p20
sI29
S'cia'
p21
sI30
S'caci'
p22
sI32
S'ihs'
p23
sI33
S'fiscal note'
p24
sI8226
S'spokeo'
p25
sI36
S'booz allen hamilton'
p26
sI8229
S'hcsc'
p27
sI38
S'c3 energy'
p28
sI39
S'fiscalnote'
p29
sI40
S'fiscalnote'
p30
sI8233
S'wargaming america'
p31
sI42
S'mckinsey'
p32
sI43
S'mckinsey'
p33
sI44
S'new america foundation'
p34
sI8237
S'wal-mart'
p35
sI46
S'the advisory board company'
p36
sI8239
S'esolvit inc'
p37
sI8240
S'kibo'
p38
sI8200
S'at t'
p39
sI50
S'booz allen hamilton'
p40
sI8243
S'homeaway'
p41
sI8244
S'capital one'
p42
sI8245
S'at t inc'
p43
sI54
S'mckinsey'
p44
sI8247
S'homeaway'
p45
sI56
S'kpmg'
p46
sI57
S'teksystems inc'
p47
sI58
S'fiscal note'
p48
sI59
S'booz allen hamilton'
p49
sI60
S'eagle ray inc'
p50
sI8202
S'n a'
p51
sI63
S'mckinsey'
p52
sI8257
S'3m'
p53
sI66
S'caci international'
p54
sI67
S'mckinsey'
p55
sI68
S'eagle ray inc'
p56
sI70
S'booz allen hamilton'
p57
sI73
S'mckinsey'
p58
sI74
S'the advisory board company'
p59
sI75
g23
sI8268
S'n a'
p60
sI77
S'kpmg'
p61
sI78
S'axiologic solutions'
p62
sI79
S'sra international inc'
p63
sI80
S'grant thornton llp'
p64
sI83
S'kenjya trusant'
p65
sI84
S'eagle ray inc'
p66
sI85
S'bluelabs'
p67
sI8278
S'rocket software'
p68
sI87
S'fiscal note'
p69
sI88
S'hellowallet'
p70
sI8283
S'n a'
p71
sI92
S'all-in analytics'
p72
sI93
S'ceb'
p73
sI94
S'csra'
p74
sI95
S'mckinsey'
p75
sI8288
S'the advisory board company'
p76
sI97
S'failproof'
p77
sI98
S'mckinsey'
p78
sI99
S'teradata'
p79
sI100
S'booz allen hamilton'
p80
sI101
S'department of homeland security'
p81
sI102
S'axiologic solutions'
p82
sI103
S'grant thornton'
p83
sI104
S'nhr global'
p84
sI8297
S'citigroup'
p85
sI106
S'axiologic solutions'
p86
sI107
S'booz allen hamilton'
p87
sI109
S'the washington post company'
p88
sI8302
S'usaa'
p89
sI111
S'ec technology llc'
p90
sI112
S'booz allen hamilton'
p91
sI8305
S'bank america corporation'
p92
sI8306
S'capital one'
p93
sI8307
S'apple'
p94
sI116
S'technical management resources inc'
p95
sI8309
S'adp'
p96
sI118
S'kpmg'
p97
sI121
g54
sI123
S'axiologic solutions'
p98
sI124
S'booz allen hamilton'
p99
sI125
S'cia'
p100
sI126
S'news'
p101
sI127
S'eagle ray inc'
p102
sI128
S'nhr global'
p103
sI129
S'eagle ray inc'
p104
sI130
S'grant thornton'
p105
sI8323
S'intersys'
p106
sI8324
S'yum brands'
p107
sI133
S'grant thornton'
p108
sI136
S'department of veterans affairs'
p109
sI137
S'technical management resources inc'
p110
sI138
S'booz allen hamilton'
p111
sI139
S'leidos'
p112
sI140
S'the rock creek group'
p113
sI142
S'mckinsey'
p114
sI143
S'vox media'
p115
sI144
S'atrilogy'
p116
sI145
S'booz allen hamilton'
p117
sI8338
S'ericsson'
p118
sI147
S'capgemini'
p119
sI8340
S'solera'
p120
sI8341
S'hitachi'
p121
sI8342
S'rivi consulting'
p122
sI151
S'civis analytics'
p123
sI152
S'atrilogy'
p124
sI154
S'kpmg'
p125
sI155
S'the cadmus group'
p126
sI158
S'fiscalnote'
p127
sI160
S'optoro'
p128
sI161
S'socrata'
p129
sI8354
S'capital one'
p130
sI163
S'fiscal note'
p131
sI8356
S'capital one'
p132
sI8357
S'smith associates'
p133
sI8358
g89
sI167
S'booz allen hamilton'
p134
sI168
S'eagle ray inc'
p135
sI170
S'society neuroscience'
p136
sI172
S'mckinsey'
p137
sI175
S'c3 energy'
p138
sI177
S'civis analytics'
p139
sI8370
S'mckinsey'
p140
sI180
g54
sI181
g54
sI8374
S'flowserve'
p141
sI8375
S'acxiom corporation'
p142
sI184
S'nuna'
p143
sI185
S'deutsche bank'
p144
sI8378
S'rocket software'
p145
sI187
S'kpmg'
p146
sI189
S'ec technology llc'
p147
sI190
S'fiscal note'
p148
sI191
S'eagle ray inc'
p149
sI8384
S'capital one'
p150
sI193
S'optoro'
p151
sI8386
S'homeaway'
p152
sI195
S'vanda pharmaceuticals inc'
p153
sI197
g54
sI8390
S'capital one'
p154
sI199
S'the advisory board company'
p155
sI202
S'booz allen hamilton'
p156
sI8396
S'mckinsey'
p157
sI205
g54
sI206
S'technical management resources inc'
p158
sI8399
S'main street hub'
p159
sI210
S'vox media'
p160
sI8403
S'hitachi'
p161
sI212
S'bluelabs'
p162
sI214
S'axiologic solutions'
p163
sI216
S'fiscalnote'
p164
sI217
S'axiologic solutions'
p165
sI8410
g12
sI219
S'csra inc'
p166
sI8412
S'pioneer natural resources'
p167
sI221
S'the advisory board company'
p168
sI222
S'axiologic solutions'
p169
sI223
g23
sI225
S'fgm inc'
p170
sI8418
S'clinical pathology laboratories inc'
p171
sI227
g101
sI228
S'nuna'
p172
sI8230
S'ibm'
p173
sI8423
S'sabre'
p174
sI8424
g94
sI233
S'kpmg'
p175
sI235
S'all-in analytics'
p176
sI236
S'axiologic solutions'
p177
sI237
S'csra'
p178
sI238
S'civis analytics'
p179
sI239
S'sprinklr'
p180
sI8433
S'at t inc'
p181
sI242
S'ec technology llc'
p182
sI243
S'fgm inc'
p183
sI244
g101
sI245
S'hassett willis company'
p184
sI246
S'fiscalnote'
p185
sI8439
S'sonsoft inc'
p186
sI248
S'fiscalnote'
p187
sI249
S'pricewaterhouse coopers'
p188
sI250
S'ceb'
p189
sI8444
S'marathon oil'
p190
sI253
S'booz allen hamilton'
p191
sI254
S'n a'
p192
sI256
S'the nielsen company'
p193
sI257
S'syracuse university'
p194
sI258
S'at t'
p195
sI259
S'aig'
p196
sI260
S'cloudera'
p197
sI261
S'merkle inc'
p198
sI263
S'corning'
p199
sI264
S'7park data'
p200
sI8236
S'spokeo'
p201
sI266
S'kpmg'
p202
sI268
S'aetna'
p203
sI269
S'kpmg'
p204
sI8463
g79
sI272
S'aetna'
p205
sI273
S'american international group'
p206
sI274
S'mckinsey'
p207
sI8467
S'dell inc'
p208
sI276
S'j.crew'
p209
sI277
S'integral'
p210
sI279
S'goldman sachs'
p211
sI280
S'the nielsen company'
p212
sI282
S'oscar health insurance'
p213
sI8475
S'university texas austin'
p214
sI284
S'united technologies'
p215
sI8477
S'capital one'
p216
sI286
S'point72'
p217
sI287
S'jp morgan'
p218
sI289
g196
sI290
S'open systems technologies'
p219
sI291
S'medidata solutionshttp hire.jobvite.com companyjobs xml.aspx c qnh9vfws'
p220
sI293
S'coventry health care inc'
p221
sI294
S'open systems technologies'
p222
sI296
S'coventry health care inc'
p223
sI8489
g89
sI298
S'dailymotion'
p224
sI299
S'buzzfeed'
p225
sI300
S'mediamath'
p226
sI301
S'averity'
p227
sI302
S'spotify'
p228
sI305
S'numeric recruiting staffing'
p229
sI307
S'point72'
p230
sI308
g173
sI8501
S'tesla motors'
p231
sI310
S'ignitionone'
p232
sI311
S'jp morgan'
p233
sI8505
S'mgm resorts'
p234
sI8506
g231
sI315
S'dataminr'
p235
sI317
S'coventry health care inc'
p236
sI8510
S'mgm resorts'
p237
sI320
S'macquarie group'
p238
sI324
S'integral'
p239
sI325
S'j crew'
p240
sI326
S'ted'
p241
sI327
S'newsela'
p242
sI328
g205
sI329
S'capital one'
p243
sI8522
S'barrick'
p244
sI331
S'kpmg'
p245
sI332
S'averity'
p246
sI8525
S'eastern maine healthcare systems'
p247
sI335
S'jp morgan'
p248
sI336
S'wework'
p249
sI337
g199
sI340
S'birchbox'
p250
sI341
S'averity'
p251
sI344
g53
sI345
S'macmillan'
p252
sI347
S'match.com'
p253
sI348
S'skillseq'
p254
sI349
S'cox enterprises'
p255
sI351
S'buzzfeed'
p256
sI353
S'state street'
p257
sI354
S'kpmg'
p258
sI357
S'spotify'
p259
sI358
S'plated'
p260
sI362
S'memorial sloan kettering'
p261
sI366
S'american international group'
p262
sI370
S'averity'
p263
sI372
S'buzzfeed'
p264
sI377
S'jp morgan'
p265
sI378
S'mckinsey'
p266
sI379
S'j crew'
p267
sI380
S'factset'
p268
sI381
S'j.crew'
p269
sI382
S'integral'
p270
sI385
S'seed scientific'
p271
sI386
S'coventry health care inc'
p272
sI388
S'morgan stanley'
p273
sI389
S'ipsos north america'
p274
sI391
S'annalect'
p275
sI393
S'n a'
p276
sI394
S'bloomberg'
p277
sI397
S'neustar inc'
p278
sI400
S'buzzfeed'
p279
sI402
g203
sI403
S'neustar inc'
p280
sI404
g215
sI406
S'placeiq'
p281
sI407
S'the nielsen company llc'
p282
sI408
S'soundcloud'
p283
sI8260
S'pilytix'
p284
sI411
S'spotify'
p285
sI413
S'sap'
p286
sI414
g205
sI415
g203
sI418
S'placeiq'
p287
sI420
S'factset'
p288
sI8262
S'insource performance solutions llc'
p289
sI423
S'american international group'
p290
sI425
S'general assembly'
p291
sI429
g173
sI430
S'seed scientific'
p292
sI431
g215
sI434
S'n a'
p293
sI435
S'etsy'
p294
sI436
S'birchbox'
p295
sI437
S'wework'
p296
sI438
S'jp morgan'
p297
sI439
S'twitter'
p298
sI440
g205
sI442
S'bonobos'
p299
sI443
S'1010data'
p300
sI444
S'oracle'
p301
sI445
S'drw trading group'
p302
sI446
S'marketshare'
p303
sI447
S'cox enterprises'
p304
sI448
S'excellus bluecross blueshield'
p305
sI451
S'dailymotion'
p306
sI454
S'adp inc'
p307
sI455
S'open systems technologies'
p308
sI457
S'dailymotion'
p309
sI458
S'conduent'
p310
sI459
S'memorial sloan kettering'
p311
sI461
S'j crew'
p312
sI466
S'kpmg'
p313
sI468
S'cox enterprises'
p314
sI469
S'goldman sachs'
p315
sI474
S'jpmorgan chase co'
p316
sI475
S'averity'
p317
sI478
S'two sigma investments llc'
p318
sI479
S'jpmorgan chase co'
p319
sI480
S'the nielsen company llc'
p320
sI481
S'jp morgan'
p321
sI483
S'yahoo'
p322
sI484
S'vodafone'
p323
sI485
S'general assembly'
p324
sI487
g205
sI488
S'bloomberg'
p325
sI489
S'open systems technologies'
p326
sI491
S'yahoo'
p327
sI492
S'capital one'
p328
sI493
S'jpmorgan chase co'
p329
sI494
S'w2o group'
p330
sI495
S'open systems technologies'
p331
sI496
S'microsoft'
p332
sI498
S'jpmorgan chase co'
p333
sI499
S'software guidance'
p334
sI501
S'open systems technologies'
p335
sI502
S'birchbox'
p336
sI503
S'point72'
p337
sI504
S'buzzfeed'
p338
sI7109
S'booz allen hamilton'
p339
sI509
S'coventry health care inc'
p340
sI510
S'zillow'
p341
sI513
S'bachrach'
p342
sI515
S'fusion'
p343
sI521
S'capital one'
p344
sI522
S'mckinsey'
p345
sI523
S'fusion abc univision joint venture'
p346
sI526
S'bloomberg'
p347
sI527
S'twitter'
p348
sI528
S'jp morgan'
p349
sI529
g205
sI531
S'ipsos'
p350
sI532
S'jpmorgan chase co'
p351
sI535
S'capital one'
p352
sI537
S'integral'
p353
sI540
g79
sI542
S'buzzfeed'
p354
sI546
S'merkle inc'
p355
sI549
S'triplelift'
p356
sI553
g196
sI556
S'integral'
p357
sI557
S'averity'
p358
sI558
S'software guidance'
p359
sI559
S'numeric recruiting staffing'
p360
sI560
S'capital one'
p361
sI561
S'annalect'
p362
sI563
S'vice'
p363
sI564
g205
sI8286
S'at t'
p364
sI568
S'mckinsey'
p365
sI571
S'harpercollins publishers'
p366
sI572
S'open systems technologies'
p367
sI577
S'facebook'
p368
sI578
S'buzzfeed'
p369
sI579
S'averity'
p370
sI580
S'j crew'
p371
sI581
S'avon products'
p372
sI8289
S'adp'
p373
sI585
S'seatgeek'
p374
sI587
S'outfront media inc'
p375
sI588
S'ice'
p376
sI8290
S'honeywell'
p377
sI590
S'harpercollins'
p378
sI594
S'j crew'
p379
sI8291
g190
sI596
S'american international group'
p380
sI598
S'andiamo'
p381
sI599
S'ge renewable energy'
p382
sI600
S'numeric recruiting staffing'
p383
sI8292
S'corporate executive board'
p384
sI602
S'numeric recruiting staffing'
p385
sI605
S'integral'
p386
sI608
S'analytic partners'
p387
sI609
S'software guidance'
p388
sI610
S'foursquare'
p389
sI611
S'kpmg'
p390
sI612
S'rkg'
p391
sI614
g273
sI615
S'mezzobit'
p392
sI616
S'verizon'
p393
sI617
S'coventry health care inc'
p394
sI8295
S'homeaway inc'
p395
sI620
S'shutterstock'
p396
sI621
S'capital one'
p397
sI622
S'open systems technologies'
p398
sI624
S'capital one'
p399
sI626
S'bonobos'
p400
sI627
S'publicis worldwide'
p401
sI628
S'jpmorgan chase co'
p402
sI629
S'birchbox'
p403
sI630
S'kpmg'
p404
sI632
S'ssa company'
p405
sI633
S'honeywell'
p406
sI638
S'integral'
p407
sI640
S'bond street'
p408
sI641
S'software guidance'
p409
sI643
g203
sI645
g196
sI648
S'viacom'
p410
sI650
g205
sI652
S'andiamo'
p411
sI653
S'clarabridge'
p412
sI654
S'mckinsey'
p413
sI656
S'thinkful'
p414
sI657
S'wcg'
p415
sI8478
S'buzzfeed'
p416
sI659
S'oppenheimerfunds'
p417
sI660
S'capital one'
p418
sI662
S'bachrach'
p419
sI663
g215
sI664
S'grubhub'
p420
sI665
S'tumblr'
p421
sI666
S'averity'
p422
sI667
S'bachrach'
p423
sI668
S'kpmg'
p424
sI669
g173
sI670
S'point72'
p425
sI672
S'integral'
p426
sI673
S'veredus corporation'
p427
sI674
S'jobs infor'
p428
sI675
g410
sI676
S'jp morgan'
p429
sI677
S'averity'
p430
sI678
S'regeneron pharmaceuticals'
p431
sI680
S'gilt groupe inc'
p432
sI681
S'capital one'
p433
sI683
S'bonobos'
p434
sI687
S'the hartford'
p435
sI690
S'buzzfeed'
p436
sI691
S'sonsoft inc'
p437
sI693
S'grubhub'
p438
sI694
S'buzzfeed'
p439
sI695
S'american international group'
p440
sI8308
S'capital one'
p441
sI698
S'n a'
p442
sI703
S'ondeck'
p443
sI704
S'turner broadcasting'
p444
sI705
S'ableto'
p445
sI708
S'open systems technologies'
p446
sI8310
S'capital one'
p447
sI710
g203
sI711
S'jp morgan'
p448
sI713
S'bloomberg'
p449
sI715
S'shutterstock'
p450
sI716
g205
sI723
S'publicis worldwide'
p451
sI724
g205
sI725
S'sonoma consulting inc'
p452
sI727
g368
sI729
S'm t bank'
p453
sI732
S'custora'
p454
sI738
S'seed scientific'
p455
sI739
S't rowe price'
p456
sI740
S'dailymotion'
p457
sI742
g257
sI743
S'rkg'
p458
sI744
S'integral'
p459
sI745
g205
sI747
S'reqroute inc'
p460
sI749
g205
sI8317
S'hewlett-packard company'
p461
sI752
S'booz allen hamilton'
p462
sI754
S'coventry health care inc'
p463
sI755
S'integral'
p464
sI757
S'bond street'
p465
sI761
S'analytic partners'
p466
sI762
S'lorven technologies inc'
p467
sI763
S'two sigma investments llc'
p468
sI764
S'buzzfeed'
p469
sI769
S'canon u.s.a. inc'
p470
sI770
S'guidepoint global'
p471
sI8209
S'homeaway'
p472
sI773
S'jefferies'
p473
sI775
g273
sI779
S'buzzfeed'
p474
sI8322
S'sally beauty'
p475
sI783
S'spotify'
p476
sI784
S'grubhub'
p477
sI786
S'7park data'
p478
sI790
S'andiamo'
p479
sI791
S'weight watchers'
p480
sI793
S'soundcloud'
p481
sI794
S'jp morgan'
p482
sI795
S'andiamo'
p483
sI796
S'integral'
p484
sI797
S'wework'
p485
sI8325
S'at t'
p486
sI803
S'collibra'
p487
sI805
S'enigma'
p488
sI808
S'bonobos'
p489
sI809
S'intersys'
p490
sI811
S"l'oreal"
p491
sI813
S'open systems technologies'
p492
sI815
S'molabs'
p493
sI816
S'outfront media inc'
p494
sI8516
S'mgm resorts international'
p495
sI818
S'harpercollins publishers'
p496
sI820
S'kpmg'
p497
sI821
S'spotify'
p498
sI822
S'spotify'
p499
sI8329
S'monsanto'
p500
sI824
S'twitter'
p501
sI825
S'software guidance'
p502
sI826
S'national grid'
p503
sI827
S'axelon services corporation'
p504
sI830
S'weight watchers'
p505
sI831
S'big spaceship'
p506
sI835
S'vevo'
p507
sI837
S'canon'
p508
sI840
S'bonobos'
p509
sI8332
S'newton talent'
p510
sI843
S'philips'
p511
sI844
S'n a'
p512
sI846
S'mediamath'
p513
sI848
S'memorial sloan kettering'
p514
sI850
S'spotify'
p515
sI851
S'coventry health care inc'
p516
sI853
g273
sI856
g173
sI857
S'j.crew'
p517
sI860
S'coventry health care inc'
p518
sI862
S'moat'
p519
sI864
S'j crew'
p520
sI8336
S'insys group'
p521
sI866
S'open systems technologies'
p522
sI868
g203
sI870
S'n a'
p523
sI871
S'averity'
p524
sI874
S'koch nitrogen company'
p525
sI875
S'j crew'
p526
sI879
S'barclays bank'
p527
sI880
g205
sI882
g273
sI8339
S'capital one'
p528
sI884
S'brookhaven science associates'
p529
sI885
S'medidata solutionshttp hire.jobvite.com companyjobs xml.aspx c qnh9vfws'
p530
sI886
S'capital one'
p531
sI887
S'jpmorgan chase co'
p532
sI889
g173
sI891
S'seed scientific'
p533
sI892
S'grubhub'
p534
sI894
S'factset'
p535
sI895
S'state new york'
p536
sI896
S'gilt'
p537
sI897
g327
sI898
S'vevo'
p538
sI899
S'mediamath'
p539
sI901
S'andiamo'
p540
sI903
S'1010data'
p541
sI904
S'pricewaterhouse coopers'
p542
sI905
S'massmutual financial group'
p543
sI906
S'sumall'
p544
sI908
S'ondeck'
p545
sI909
S'barclays bank'
p546
sI912
S'capital one'
p547
sI913
S'harpercollins'
p548
sI915
S'ondeck'
p549
sI916
S'gamechanger'
p550
sI917
S'jp morgan'
p551
sI919
S'athenpollo llc'
p552
sI920
S'uncommon goods'
p553
sI921
S'brookhaven science associates'
p554
sI924
S'vdart inc'
p555
sI925
S'mckinsey'
p556
sI927
S'sonsoft inc'
p557
sI929
S'merkle inc'
p558
sI933
S'cloudera'
p559
sI934
S'n a'
p560
sI935
S'two sigma'
p561
sI941
S'mediamath'
p562
sI945
S'think big analytics'
p563
sI947
S'the nielsen company llc'
p564
sI949
g215
sI950
S'buzzfeed'
p565
sI951
S'mizuho'
p566
sI952
S'the mcgraw-hill companies education'
p567
sI955
S'guidepoint'
p568
sI957
S'open systems technologies'
p569
sI958
S'dailymotion'
p570
sI960
S'buzzfeed'
p571
sI961
g393
sI962
S"l'oreal"
p572
sI965
S'ayasdi'
p573
sI966
S'appnexus inc'
p574
sI8353
S'usaa'
p575
sI970
S'buzzfeed'
p576
sI971
S'nypa'
p577
sI974
S'custora'
p578
sI975
S'blackrock'
p579
sI978
S'coventry health care inc'
p580
sI979
S'andiamo'
p581
sI980
g332
sI981
S'pulsepoint'
p582
sI982
S'pricewaterhouse coopers'
p583
sI983
S'numeric recruiting staffing'
p584
sI985
S'sap'
p585
sI989
S'averity'
p586
sI990
S'the nielsen company'
p587
sI991
g205
sI993
S'massmutual financial group'
p588
sI994
S'capital one'
p589
sI998
S'gilt groupe inc'
p590
sI8359
S'homeaway'
p591
sI1005
S'adp'
p592
sI1006
S'adp'
p593
sI1007
S'open systems technologies'
p594
sI1008
S'viacom'
p595
sI1009
S'capital one'
p596
sI1010
S'buzzfeed'
p597
sI1012
S'capital one'
p598
sI1015
g196
sI1016
S'ipsos'
p599
sI1017
S'dailymotion'
p600
sI1018
S'j.crew'
p601
sI1020
S'bloomberg'
p602
sI1024
S'talenthub worldwide'
p603
sI1026
S'epharmasolutions'
p604
sI1027
S'marketshare'
p605
sI1029
S'buzzfeed'
p606
sI1030
S'ondeck'
p607
sI1031
S'excellus bluecross blueshield'
p608
sI1033
S'mckinsey'
p609
sI1034
S't rowe price'
p610
sI1035
S'newsela'
p611
sI1036
S'coventry health care inc'
p612
sI1037
S'software guidance'
p613
sI1038
S'axa'
p614
sI1040
S'socrata'
p615
sI1043
S'placeiq'
p616
sI1046
S'software guidance'
p617
sI1047
S'avanade'
p618
sI1048
S'capital one'
p619
sI1051
S'ted'
p620
sI1052
S'oscar health insurance'
p621
sI1053
S'nypa'
p622
sI1055
g205
sI1056
S'appnexus inc'
p623
sI1057
g205
sI1058
S'open systems technologies'
p624
sI1060
S'technical resource network'
p625
sI1064
S'ge oil gas'
p626
sI1065
S'ge oil gas'
p627
sI1067
S'devon energy'
p628
sI1068
g628
sI1070
S'ge oil gas'
p629
sI1077
S'dupont'
p630
sI1078
S'w l gore associates inc'
p631
sI8372
S'general assembly'
p632
sI1083
S'athenpollo llc'
p633
sI1084
S'jp morgan'
p634
sI1085
S'jpmorgan chase'
p635
sI1088
S'capital one'
p636
sI1089
S'capital one'
p637
sI1090
S'jpmorgan chase co'
p638
sI1091
S'implify inc'
p639
sI1092
S'capital one'
p640
sI1094
S'capital one'
p641
sI1098
S'charles river'
p642
sI1102
S'bank america corporation'
p643
sI8376
S'hcsc'
p644
sI1107
S'capital one'
p645
sI1109
S'united health group'
p646
sI8377
S'ge transportation'
p647
sI1112
S'ceridian corporation'
p648
sI1114
S'ch robinson'
p649
sI1115
S'united health group inc'
p650
sI1118
S'nuna'
p651
sI1119
S'ecolab'
p652
sI1120
S'unitedhealth group'
p653
sI1123
S'honeywell'
p654
sI1124
g653
sI1125
S'unitedhealth group'
p655
sI1126
S'honeywell'
p656
sI1127
S'us bank'
p657
sI1130
S'mckinsey'
p658
sI1132
g655
sI1134
S'united health group'
p659
sI1136
S'honeywell'
p660
sI1138
S'life time fitness'
p661
sI1139
S'n a'
p662
sI1141
g53
sI1142
S'3m'
p663
sI1146
S'solera holdings'
p664
sI1148
S'mckinsey'
p665
sI1150
S'united health group'
p666
sI1153
g663
sI1155
g663
sI1156
S'medtronic inc'
p667
sI1157
S'buzzfeed'
p668
sI1160
g653
sI1162
S'polaris industries'
p669
sI1165
g663
sI1168
S'schneider electric'
p670
sI1169
S'cray inc'
p671
sI8387
S'mckinsey'
p672
sI1173
g655
sI1174
g663
sI1177
Vcognizant technology
p673
sI1182
g53
sI1183
S'audatex'
p674
sI1187
S'seagate technology llc'
p675
sI1190
g653
sI1193
S'n a'
p676
sI8391
S'n a'
p677
sI1198
S'adp'
p678
sI1201
g53
sI1202
g653
sI1209
S'ch robinson'
p679
sI1211
S'united health group'
p680
sI8394
g173
sI1217
S'general assembly'
p681
sI1219
S'solera holdings'
p682
sI1220
S'honeywell'
p683
sI1221
g653
sI1228
S'nuna'
p684
sI1231
S'n a'
p685
sI1234
S'united health group'
p686
sI1236
S'us bank'
p687
sI1237
S'general mills'
p688
sI1238
S'jamf software'
p689
sI1241
g663
sI1245
S'n a'
p690
sI1246
S'honeywell'
p691
sI1247
S'fairview health services'
p692
sI8225
g85
sI1254
S'ch robinson'
p693
sI1256
S'mathmatica policy research'
p694
sI1257
g53
sI1260
S'united health group'
p695
sI8402
S'w2o group'
p696
sI1263
S'united health group'
p697
sI1264
S'n a'
p698
sI1266
S'seagate technology llc'
p699
sI1267
S'united health group'
p700
sI1268
S'n a'
p701
sI1269
g653
sI1271
g688
sI1272
g653
sI8404
S'at t inc'
p702
sI1274
S'life time fitness'
p703
sI1280
S'general assembly'
p704
sI1281
S'united health group'
p705
sI1284
S'dairy farmers america inc'
p706
sI1285
S'audatex'
p707
sI1286
g655
sI1288
g663
sI1290
S'honeywell'
p708
sI1292
S'tcf bank'
p709
sI1295
S'msp metropolitan council'
p710
sI1296
g655
sI1297
g655
sI1299
S'seagate'
p711
sI1300
S'us bank'
p712
sI1301
g688
sI1310
S'mckinsey'
p713
sI1313
S'medtronic'
p714
sI1316
S'sonsoft inc'
p715
sI1319
S'ccc information services inc'
p716
sI1320
S'ccc information services inc'
p717
sI1324
S'alliance data'
p718
sI1328
S'coyote'
p719
sI1330
S'osf healthcare'
p720
sI1332
S'transunion'
p721
sI8414
S'kpmg'
p722
sI1334
g653
sI1337
S'deere'
p723
sI1339
S'abbvie'
p724
sI1341
S'kpmg'
p725
sI1342
S'sonsoft inc'
p726
sI8228
S'applied materials'
p727
sI1345
S'united health group'
p728
sI1346
S'cdk global'
p729
sI1347
S'syngenta global'
p730
sI1355
S'transunion'
p731
sI1357
S'capital one'
p732
sI1358
S'mckinsey'
p733
sI1359
S'cdk global'
p734
sI1360
S'general assembly'
p735
sI1363
S'hertz corporation'
p736
sI1366
S'zurich insurance'
p737
sI1369
S'the nielsen company'
p738
sI1370
S'caterpillar'
p739
sI1373
S'ge healthcare'
p740
sI1375
S'rally health'
p741
sI1376
S'merkle inc'
p742
sI1377
S'kpmg'
p743
sI1378
S'honeywell'
p744
sI1379
S'ccc information services inc'
p745
sI1380
S'civis analytics'
p746
sI1382
S'jpmorgan chase co'
p747
sI1383
S'cdk global'
p748
sI1386
S'conversant'
p749
sI1389
S'alliance data'
p750
sI1395
S'epsilon'
p751
sI1396
S'here'
p752
sI1398
S'aaos'
p753
sI1399
S'grubhub'
p754
sI1402
S'discover financial services'
p755
sI1405
S'mckinsey'
p756
sI1407
g739
sI1408
S'national opinion research center norc'
p757
sI1409
S'vha inc'
p758
sI1410
S'powerhouse talent inc'
p759
sI1411
S'coyote'
p760
sI1412
S'signature consultants'
p761
sI1413
g755
sI1415
S'vha inc'
p762
sI1417
S'socore energy'
p763
sI1418
S'activecampaign'
p764
sI1419
S'abbott'
p765
sI1421
S'epsilon'
p766
sI1422
S'n a'
p767
sI1425
S'cdk global'
p768
sI1426
S'capital one'
p769
sI1427
S'knowles corporation'
p770
sI1429
S'vista equity partners'
p771
sI1430
S'alliance data'
p772
sI8231
S'bank america corporation'
p773
sI8431
S'blucora'
p774
sI1436
S'capital one'
p775
sI1437
S'ncsa athletic recruiting'
p776
sI1438
S'booz allen hamilton'
p777
sI1440
S'conversant'
p778
sI1444
S'mckinsey'
p779
sI1445
S'dupage medical group'
p780
sI1446
S'ann'
p781
sI1448
S'university chicago'
p782
sI1452
S'cme group'
p783
sI1453
g723
sI1455
S'kpmg'
p784
sI1457
S'zacks investment research'
p785
sI1458
S'1871'
p786
sI1459
g653
sI1460
S'vha inc'
p787
sI1461
S'capital one'
p788
sI1462
S'ge healthcare'
p789
sI8436
S'humana'
p790
sI1466
S'iloan onemain brand'
p791
sI1469
S'ccc information services inc'
p792
sI1470
S'hyatt'
p793
sI8437
S'mckesson'
p794
sI1477
S'alliance data'
p795
sI1481
S'civis analytics'
p796
sI1482
S'hcsc'
p797
sI1483
S'mckinsey'
p798
sI1486
S'the nielsen company llc'
p799
sI1489
S'hertz'
p800
sI1490
S'espark learning'
p801
sI1491
S'anthem'
p802
sI1493
S'health care service corporation'
p803
sI1494
S'ipsos'
p804
sI1495
S'alliance data'
p805
sI1496
S'conversant'
p806
sI1498
S'american family insurance group'
p807
sI1499
S'general assembly'
p808
sI1500
S'mckinsey'
p809
sI1502
g723
sI1503
g755
sI1504
S'epsilon'
p810
sI1509
S'cdk global'
p811
sI1512
S'nextcapital'
p812
sI1513
S'kaplan inc'
p813
sI1515
S'health care service corporation'
p814
sI1516
g724
sI1517
S'civis analytics'
p815
sI1521
S'conversant'
p816
sI1523
S'anthem'
p817
sI1524
S'ccc information services inc'
p818
sI1527
g724
sI1528
S'mondelez international'
p819
sI1531
S'civis analytics'
p820
sI1534
g755
sI1535
S'socore energy'
p821
sI1538
S'mckinsey'
p822
sI1539
g783
sI1540
S'ccc information services inc'
p823
sI1541
S'alliance data'
p824
sI1543
S'abbott laboratories'
p825
sI1545
S'here'
p826
sI1546
S'dupage medical group'
p827
sI1547
S'kpmg'
p828
sI1551
S'kp recruiting group'
p829
sI1553
S'sprout social'
p830
sI1554
S'expedia'
p831
sI1555
S'ge digital'
p832
sI1556
S'buzzfeed'
p833
sI1560
S'hcsc'
p834
sI1561
S'the boston consulting group'
p835
sI1566
S'sonsoft inc'
p836
sI1568
g205
sI1570
g802
sI1571
S'ge renewable energy'
p837
sI1575
S'zurich insurance'
p838
sI1576
S'civis analytics'
p839
sI1577
S'mckinsey'
p840
sI1578
S'millward brown'
p841
sI8455
S'testingxperts'
p842
sI1581
S'kpmg'
p843
sI1582
S'mastercard'
p844
sI1584
S'civis analytics'
p845
sI1586
S'honeywell'
p846
sI1587
S'university chicago'
p847
sI1591
S'here'
p848
sI1596
S'walgreen co'
p849
sI1597
S'capital one'
p850
sI1599
S'norc'
p851
sI1603
S'salesforce'
p852
sI1604
S'mckinsey'
p853
sI1606
S'ncsa athletic recruiting'
p854
sI1607
S'sonsoft inc'
p855
sI1610
g655
sI1612
S'ge healthcare'
p856
sI1616
S'mckinsey'
p857
sI1622
S'civis analytics'
p858
sI1623
S'nextcapital'
p859
sI1625
S'acco brands inc'
p860
sI1626
S'constellation brands'
p861
sI271
S'buzzfeed'
p862
sI1628
S'cdk global'
p863
sI1631
S'iconma l.l.c.'
p864
sI1632
S'the nielsen company'
p865
sI1633
S'cdk global'
p866
sI1636
S'rehabilitation institute chicago'
p867
sI1637
S'mckinsey'
p868
sI1638
S'united health group'
p869
sI1641
S'hcsc'
p870
sI1642
S'weatherbill'
p871
sI1643
S'audience'
p872
sI1644
S'capital one'
p873
sI8466
S'sysco'
p874
sI1647
S'epsilon'
p875
sI1648
S'mckinsey'
p876
sI1650
S'conversant'
p877
sI1651
S'capital one'
p878
sI1652
g655
sI1653
S'walgreens'
p879
sI1654
S'vista equity partners'
p880
sI1657
S'mckinsey'
p881
sI1659
S'vdart inc'
p882
sI1660
S'advantis global'
p883
sI1661
S'scientific games'
p884
sI1663
S'ipsos north america'
p885
sI1665
S'kcura'
p886
sI1666
S'mckinsey'
p887
sI1669
g724
sI1672
S'buzzfeed'
p888
sI1674
S'cdk global'
p889
sI1675
S'audience'
p890
sI1676
g802
sI1677
g755
sI1678
S'ccc information services inc'
p891
sI1682
S'capital one'
p892
sI1687
S'united airlines'
p893
sI1690
g724
sI1691
S'cnh industrial'
p894
sI1692
S'ccc information services inc'
p895
sI1693
S'press ganey'
p896
sI1695
S'argonne national laboratory'
p897
sI1696
S'epiworks inc'
p898
sI1697
g755
sI1699
S'civis analytics'
p899
sI1701
S'andiamo'
p900
sI1703
S'capital one'
p901
sI1704
S'hertz'
p902
sI8476
S'at t'
p903
sI1707
S'ccc information services inc'
p904
sI1709
S'alliance data systems'
p905
sI1710
S'off-site employees corp use'
p906
sI1713
S'belly'
p907
sI1715
S'ccc information services inc'
p908
sI1716
S'the nielsen company llc'
p909
sI1717
S'country financial'
p910
sI1718
S'vha inc'
p911
sI1721
S'tyson foods'
p912
sI1722
S'civis analytics'
p913
sI1724
S'civis analytics'
p914
sI1727
S'sprout social'
p915
sI1729
S'ge transportation'
p916
sI1731
S'rkg'
p917
sI1732
S'cdk global'
p918
sI1733
S'cancer iq'
p919
sI1734
S'jackson national life insurance company'
p920
sI8481
S'at t'
p921
sI1737
S'mckinsey'
p922
sI1738
S'jackson national life insurance co inc'
p923
sI1739
S'kpmg'
p924
sI1744
S'andiamo'
p925
sI1756
g783
sI1757
S'kaplan inc'
p926
sI1758
S'capital one'
p927
sI1759
S'the climate corporation'
p928
sI1760
S'crowe horwath llp'
p929
sI1763
S'ge transportation'
p930
sI8486
S'improving'
p931
sI1768
S"cce's engineering"
p932
sI1769
S'cars.com llc'
p933
sI1776
S'wal-mart'
p934
sI8488
S'buzzfeed'
p935
sI1778
S'misource inc'
p936
sI1779
S'acosta sales marketing'
p937
sI1780
S'walmart'
p938
sI1785
S'blackbaud'
p939
sI1786
S'nwnit'
p940
sI1791
S'the centrics group'
p941
sI1792
S'nwn'
p942
sI1795
S'blackbaud'
p943
sI1797
S'blackbaud'
p944
sI8468
S'matchpoint solutions'
p945
sI1800
S'bluecross blueshield south carolina'
p946
sI1801
S'skilldemand'
p947
sI1802
S'cummins'
p948
sI1804
S'cox enterprises'
p949
sI1805
S'oneamerica'
p950
sI1807
S'dwa healthcare communications group'
p951
sI1813
g802
sI1821
g948
sI1823
S'advanced testing laboratory'
p952
sI1824
S'advanced testing laboratory'
p953
sI1827
S'cox automotive'
p954
sI1828
S'cox auto inc'
p955
sI1831
g852
sI1832
S'cox enterprises'
p956
sI1834
g802
sI1840
S'usm business systems inc'
p957
sI8499
S'solarcity corporation'
p958
sI1844
S'cox auto inc'
p959
sI1847
S'cox automotive'
p960
sI1848
S'noblis'
p961
sI1849
S'the university maryland medical system'
p962
sI1850
S'johns hopkins applied physics laboratory'
p963
sI1853
S'leidos'
p964
sI1856
S'seneca resources'
p965
sI1858
S'booz allen hamilton'
p966
sI1859
S'cisco systems'
p967
sI1860
S'seneca resources'
p968
sI8502
S'ge oil gas'
p969
sI1862
S'northrop grumman'
p970
sI1863
S'laureate education inc'
p971
sI1864
S'rkg'
p972
sI1866
S'leidos'
p973
sI1868
S'johns hopkins university'
p974
sI1870
S'leidos'
p975
sI1872
S'johns hopkins applied physics laboratory'
p976
sI1873
S'city baltimore md'
p977
sI7139
S'eagle ray inc'
p978
sI1877
S'booz allen hamilton'
p979
sI1880
S'johns hopkins applied physics laboratory'
p980
sI8246
S'capital one'
p981
sI1886
S'westwind solutions'
p982
sI1889
S'the nielsen company'
p983
sI1890
g970
sI1891
S'berico technologies'
p984
sI1893
g273
sI1894
S'nhr global'
p985
sI1896
S'mattaponi partners'
p986
sI1900
S'am pierce associates'
p987
sI1902
S'leidos'
p988
sI1903
S'johns hopkins university'
p989
sI1907
S'norc'
p990
sI1908
S'leidos'
p991
sI1909
S'johns hopkins university'
p992
sI1911
S'dmi'
p993
sI1912
S'turas group'
p994
sI1913
S'city baltimore md'
p995
sI1915
S'johns hopkins applied physics laboratory'
p996
sI1917
S't rowe price'
p997
sI1919
S'leidos'
p998
sI8512
S'about tesla'
p999
sI1923
S'verisk analytics'
p1000
sI1925
g53
sI1926
S'leidos'
p1001
sI1929
S'intrexon'
p1002
sI1932
S'under armour'
p1003
sI1934
S'software tech enterprises'
p1004
sI1936
S'rkg'
p1005
sI1939
S'leidos'
p1006
sI1940
S'johns hopkins university'
p1007
sI1941
S'laureate education inc'
p1008
sI1942
S'booz allen hamilton'
p1009
sI8248
S'n a'
p1010
sI1944
S'rkg'
p1011
sI1945
S'devaran'
p1012
sI1946
S'the nielsen company llc'
p1013
sI1948
S'johns hopkins university'
p1014
sI8469
S's3'
p1015
sI1950
S'norc'
p1016
sI1951
S'johns hopkins university'
p1017
sI1952
S'booz allen hamilton'
p1018
sI1953
S'booz allen hamilton'
p1019
sI1955
S'noblis'
p1020
sI1956
g970
sI1966
g970
sI1968
S'booz allen hamilton'
p1021
sI1971
S'rkg'
p1022
sI1978
S'merkle inc'
p1023
sI1981
S'merkle inc'
p1024
sI1982
S'leidos'
p1025
sI1983
S'leidos'
p1026
sI1984
S'mda information systems llc'
p1027
sI1991
S'berico technologies'
p1028
sI1992
S'booz allen hamilton'
p1029
sI1993
S'johns hopkins university'
p1030
sI1995
S'marriott international'
p1031
sI1997
S'rkg'
p1032
sI2002
S'catholic health initiatives'
p1033
sI8250
S'ccc information services inc'
p1034
sI2004
g273
sI2009
S'zerofox'
p1035
sI2012
S'merkle inc'
p1036
sI2014
S'the nielsen company'
p1037
sI2015
S'devaran'
p1038
sI2018
S'mda information systems llc'
p1039
sI2021
S'infozen'
p1040
sI2022
S'quality health strategies'
p1041
sI8529
S'idexx laboratories'
p1042
sI2026
S'general dynamics'
p1043
sI2029
S'booz allen hamilton'
p1044
sI2030
g1043
sI2033
S'the nielsen company llc'
p1045
sI2036
S'merkle inc'
p1046
sI2038
S'noblis'
p1047
sI2039
S'johns hopkins university'
p1048
sI8532
S'king'
p1049
sI2044
S'quality health strategies'
p1050
sI2046
S'southern'
p1051
sI2050
S'nhr global'
p1052
sI2051
S'gap'
p1053
sI2055
S'johns hopkins applied physics laboratory'
p1054
sI2058
S'merkle inc'
p1055
sI2060
S'booz allen hamilton'
p1056
sI2064
S'booz allen hamilton'
p1057
sI2068
S'booz allen hamilton'
p1058
sI2075
g1051
sI2077
S'teaching strategies llc'
p1059
sI2078
S'johns hopkins applied physics laboratory'
p1060
sI2079
S'leidos'
p1061
sI2080
S'booz allen hamilton'
p1062
sI2082
S'leidos'
p1063
sI2083
S'leidos'
p1064
sI2085
S'leidos'
p1065
sI2086
S'catholic health initiatives'
p1066
sI2087
S'amedisys home health services'
p1067
sI2089
S'ge oil gas'
p1068
sI2090
S'amedisys inc'
p1069
sI2091
S'ge oil gas'
p1070
sI2092
S'n a'
p1071
sI2095
S'rtl networks'
p1072
sI2100
S'homeadvisor'
p1073
sI2101
S'micron technology'
p1074
sI2102
g1074
sI2103
S'muse biotechnology inc'
p1075
sI2104
S'nhr global'
p1076
sI2107
S'homeadvisor'
p1077
sI2108
S'n a'
p1078
sI2110
g1074
sI2111
S'homeadvisor'
p1079
sI2112
S'nhr global'
p1080
sI2115
S'hewlett-packard company'
p1081
sI2120
g1074
sI2122
S'pivotal labs'
p1082
sI2123
S'google'
p1083
sI2124
S'nrel'
p1084
sI2125
S'xentity corporation'
p1085
sI2129
S'team industrial services inc'
p1086
sI2130
S'rtl networks'
p1087
sI2131
S'idaho national laboratory'
p1088
sI2133
S'homeadvisor'
p1089
sI2134
S'n a'
p1090
sI2137
S'steelcase'
p1091
sI2138
g1091
sI2139
g1091
sI2141
S'crowe horwath llp'
p1092
sI2143
S'scribe software'
p1093
sI2146
S'adp'
p1094
sI2148
S'yandex'
p1095
sI2149
S'adp'
p1096
sI2150
S'adp inc'
p1097
sI2151
S'buzzfeed'
p1098
sI2152
S'highpoint technology solutions inc'
p1099
sI8255
S'blackbaud'
p1100
sI2159
S'honeywell'
p1101
sI2162
S'copperpoint insurance companies'
p1102
sI2163
S'xerox'
p1103
sI2164
S'raytheon'
p1104
sI2174
S'honeywell'
p1105
sI2175
S'early warning services llc'
p1106
sI2176
S'honeywell'
p1107
sI2177
S'honeywell'
p1108
sI2184
S'simpleview inc'
p1109
sI2187
S'jobs infor'
p1110
sI2188
S'honeywell'
p1111
sI2192
S'express'
p1112
sI2193
g1112
sI2194
S'dignity health'
p1113
sI2195
S'honeywell'
p1114
sI2198
S'sap'
p1115
sI2199
S'beyondsoft group'
p1116
sI2200
g755
sI2201
S'choice hotels'
p1117
sI2203
g1112
sI2204
S'honeywell'
p1118
sI2205
S'intel'
p1119
sI2209
S'beyondsoft group'
p1120
sI2210
S'honeywell'
p1121
sI2212
g1119
sI2213
S'beyondsoft group'
p1122
sI2214
S'honeywell'
p1123
sI2218
S'early warning'
p1124
sI2219
S'honeywell'
p1125
sI2221
g755
sI2223
S'reqroute inc'
p1126
sI2224
g1119
sI2228
g630
sI2230
S'adp'
p1127
sI2232
S'adp'
p1128
sI2238
g630
sI2239
g630
sI2240
g630
sI2241
S'alliant energy'
p1129
sI2244
S"lands' end"
p1130
sI2246
g630
sI2249
S"lands' end"
p1131
sI2250
g630
sI2253
g630
sI2255
g630
sI2259
S'truven health analytic inc'
p1132
sI2260
S'ford'
p1133
sI2261
S'ipsos north america'
p1134
sI2262
S'rapid global business solutions inc'
p1135
sI2264
S'ciber'
p1136
sI2265
S'kellogg'
p1137
sI2266
S'comerica'
p1138
sI2269
S'asg renaissance'
p1139
sI2270
S'ford motor'
p1140
sI2271
g1137
sI2272
S'ipsos'
p1141
sI2274
S'ford'
p1142
sI2275
S'ciber novasoft'
p1143
sI2276
S'general motors'
p1144
sI2277
S'ford'
p1145
sI2278
S'bartech group'
p1146
sI2279
S'mckinsey'
p1147
sI2280
S'truven health analytic inc'
p1148
sI2281
S'teksystems inc'
p1149
sI2282
S'quicken loans inc'
p1150
sI2283
S'general motors'
p1151
sI2284
g1140
sI2285
S'rapid global business solutions inc'
p1152
sI2287
S'truven health analytic inc'
p1153
sI2288
S'mckinsey'
p1154
sI2289
S'ncode'
p1155
sI2291
S'truven health analytic inc'
p1156
sI2292
S'bartech group'
p1157
sI2293
S'cdk global'
p1158
sI2294
S'avl'
p1159
sI2299
S'altair'
p1160
sI2301
S'altair'
p1161
sI2305
S'ford'
p1162
sI2306
S'altair'
p1163
sI2308
S'truven health analytic inc'
p1164
sI2309
S'asg renaissance'
p1165
sI2310
S'rapid global business solutions inc'
p1166
sI2311
S'asg renaissance'
p1167
sI2312
g173
sI2313
S'asg renaissance'
p1168
sI2314
g1137
sI2315
g1140
sI2317
S'truven health analytic inc'
p1169
sI2318
g1140
sI2320
S'ford'
p1170
sI2321
g1151
sI2322
S'teksystems inc'
p1171
sI2323
g1091
sI2325
S'optomi'
p1172
sI2326
S'truven health analytic inc'
p1173
sI2327
S'skilldemand'
p1174
sI2328
S'ford'
p1175
sI2329
S'ge digital'
p1176
sI2330
S'asg renaissance'
p1177
sI2331
S'asg renaissance'
p1178
sI2332
S'altair'
p1179
sI2333
S'ford'
p1180
sI2337
S'asg renaissance'
p1181
sI2339
S'crowe horwath llp'
p1182
sI2340
S'bartech group'
p1183
sI2341
S'asg renaissance'
p1184
sI2342
S'truven health analytic inc'
p1185
sI2344
g1091
sI2345
S'ford'
p1186
sI2348
S'ipsos'
p1187
sI2349
S'altair'
p1188
sI2350
g1140
sI2351
g1140
sI2352
S'asg renaissance'
p1189
sI2353
S'asg renaissance'
p1190
sI2355
S'harman international'
p1191
sI2356
S'asg renaissance'
p1192
sI2357
S'harman international inds'
p1193
sI2358
g1137
sI2360
g1091
sI2361
S'asg renaissance'
p1194
sI2362
S'rapid global business solutions inc'
p1195
sI2363
S'bartech group'
p1196
sI2365
S'truven health analytic inc'
p1197
sI2366
S'dow chemical'
p1198
sI2367
S'asg renaissance'
p1199
sI2369
S'ford'
p1200
sI2370
S'cdk global'
p1201
sI2371
S'quicken loans'
p1202
sI2372
S'skilldemand'
p1203
sI2374
g173
sI2375
S'truven health analytic inc'
p1204
sI2377
g1138
sI2378
S'ford'
p1205
sI2380
S'rapid global business solutions inc'
p1206
sI2381
S'ge digital'
p1207
sI2382
g1151
sI2383
S'rapid global business solutions inc'
p1208
sI2385
g1138
sI2387
S'asg renaissance'
p1209
sI2388
S'asg renaissance'
p1210
sI2389
S'altair'
p1211
sI2391
S'ford'
p1212
sI2392
S'truven health analytic inc'
p1213
sI2393
S'rapid global business solutions inc'
p1214
sI2394
S'rapid global business solutions inc'
p1215
sI2395
S'avl north america'
p1216
sI2396
S'rapid global business solutions inc'
p1217
sI2397
S'cdk global'
p1218
sI2399
S'ipsos'
p1219
sI2401
S'optomi'
p1220
sI2404
S'mckinsey'
p1221
sI2406
S'ipsos north america'
p1222
sI2408
S'bartech group'
p1223
sI2411
g1140
sI2413
S'nhr global'
p1224
sI2414
S'amsted'
p1225
sI2415
S'pra health sciences'
p1226
sI2417
S'dst systems'
p1227
sI2418
S'the nerdery'
p1228
sI2420
S'selectquote'
p1229
sI2423
S'dst systems'
p1230
sI2424
g1230
sI2425
S'selectquote'
p1231
sI2426
g1227
sI2428
S'koch nitrogen company'
p1232
sI2430
S'textron'
p1233
sI2432
S'cerner'
p1234
sI2435
g1230
sI2436
S'nhr global'
p1235
sI2437
S'department of agriculture'
p1236
sI2438
S'sprint'
p1237
sI2440
g1227
sI2441
g1230
sI2442
g1227
sI2444
S'the nerdery'
p1238
sI2445
g1234
sI2446
g1234
sI2447
S'progressive'
p1239
sI2448
S'proofpoint inc'
p1240
sI2454
S'verisk analytics'
p1241
sI2456
g53
sI2457
S'adp'
p1242
sI2458
S'zions bancorporation'
p1243
sI2461
S'zions bancorporation'
p1244
sI2462
S'ancestry'
p1245
sI2465
S'hirevue'
p1246
sI2467
S'american cruise lines'
p1247
sI2469
S'solutionreach'
p1248
sI2472
S'zions bancorporation'
p1249
sI2473
g1239
sI2475
S'pluralsight'
p1250
sI2478
S'adp inc'
p1251
sI2480
S'proofpoint inc'
p1252
sI2482
S'adp'
p1253
sI2484
S'progrexion'
p1254
sI2488
S'west'
p1255
sI2490
S'pluralsight'
p1256
sI2491
S'insidesales.com'
p1257
sI2495
S'university utah'
p1258
sI2498
S'pluralsight'
p1259
sI2504
S'caci'
p1260
sI2505
g970
sI2506
S'capital one'
p1261
sI2507
S'saic'
p1262
sI2508
S'nhr global'
p1263
sI2513
S'general dynamics'
p1264
sI2514
S'adp'
p1265
sI2515
g54
sI2517
S'xentity corporation'
p1266
sI2518
g1074
sI2521
S'bechtel'
p1267
sI2522
S'booz allen hamilton'
p1268
sI2523
S'leidos'
p1269
sI2525
S'fgm inc'
p1270
sI2526
S'praxis engineering'
p1271
sI421
S'n a'
p1272
sI2528
S'capital one'
p1273
sI2529
S'nhr global'
p1274
sI2530
S'dcs corporation'
p1275
sI2531
g301
sI2533
S'boeing'
p1276
sI2535
S'mda information systems llc'
p1277
sI2536
S'nhr global'
p1278
sI2539
S'comprehensive health services'
p1279
sI2540
S'capital one'
p1280
sI2541
g54
sI2542
S'caci'
p1281
sI2548
S'caci'
p1282
sI2549
g1276
sI2554
S'fgm inc'
p1283
sI2555
S'capital one'
p1284
sI2556
S'capital one'
p1285
sI2558
S'capital one'
p1286
sI2559
S'leidos'
p1287
sI2560
S'adp inc'
p1288
sI2561
S'red gate'
p1289
sI2562
S'sotera defense solutions'
p1290
sI2565
S'capital one'
p1291
sI2569
S'adp'
p1292
sI2570
S'onyx government services llc'
p1293
sI2573
g54
sI2579
S'celestar'
p1294
sI2580
S'adp'
p1295
sI2581
S'adp'
p1296
sI2582
S'ge digital'
p1297
sI2583
S'mda information systems llc'
p1298
sI2584
S'chenega corporation'
p1299
sI2586
S'adp'
p1300
sI2587
S'booz allen hamilton'
p1301
sI2589
S'kpmg'
p1302
sI2591
S'adp'
p1303
sI2592
S'cardinalhire'
p1304
sI2593
S'clarabridge'
p1305
sI2594
S'adp'
p1306
sI2595
S'freddie mac'
p1307
sI2597
S'comscore inc'
p1308
sI2598
S'virginia tech'
p1309
sI2599
S'capital one'
p1310
sI2602
S'capital one'
p1311
sI2603
S'capital one'
p1312
sI2605
S'calibre'
p1313
sI2608
S'capital one'
p1314
sI2613
S'caci'
p1315
sI2615
S'noblis'
p1316
sI2616
S'applied research associates inc'
p1317
sI2618
S'avid technology professionals'
p1318
sI2621
S'capital one'
p1319
sI2624
S'bitvoyant'
p1320
sI2625
S'capital one'
p1321
sI2630
S'lmigovernment consulting'
p1322
sI2635
S'nhr global'
p1323
sI2637
g970
sI2639
S'techaed'
p1324
sI2642
S'bank ozarks'
p1325
sI2643
S'leidos'
p1326
sI2646
S'nvidia'
p1327
sI2650
S'booz allen hamilton'
p1328
sI2651
S'leidos'
p1329
sI2652
S'capital one'
p1330
sI2653
S'booz allen hamilton'
p1331
sI2659
g970
sI2660
S'capital one'
p1332
sI2661
S'concurrent technologies'
p1333
sI2662
S'fgm inc'
p1334
sI8272
S'mckinsey'
p1335
sI2665
g1307
sI2666
S'caci'
p1336
sI2667
S'capital one'
p1337
sI2669
S'gdit'
p1338
sI2672
g54
sI2675
S'logistics management institute'
p1339
sI2676
S'capital one'
p1340
sI2677
S'quadrint inc'
p1341
sI2679
S'capital one'
p1342
sI2681
S'centurylink'
p1343
sI2682
S'mda information systems llc'
p1344
sI2684
g1276
sI2685
S'nuwave solutions'
p1345
sI2686
S'capital one'
p1346
sI2688
g970
sI2689
g970
sI2691
S'booz allen hamilton'
p1347
sI2692
S'celestar'
p1348
sI2694
S'leidos'
p1349
sI2695
S'saic'
p1350
sI2697
S'avid technology professionals'
p1351
sI2699
S'capital one'
p1352
sI2703
S'xentity corporation'
p1353
sI2709
S'quadrint inc'
p1354
sI2710
S'koch industries inc'
p1355
sI2711
S'capital one'
p1356
sI2713
S'leidos'
p1357
sI2714
S'capital one'
p1358
sI2716
S'caci'
p1359
sI2719
S'adp'
p1360
sI2720
S'caci'
p1361
sI2721
S'emkayel consulting llc'
p1362
sI2723
S'capital one'
p1363
sI2725
S'capital one'
p1364
sI2726
S'seneca resources'
p1365
sI2727
S'clarabridge'
p1366
sI2728
g54
sI2731
S'georgia-pacific'
p1367
sI2733
S'adp'
p1368
sI2734
S'booz allen hamilton'
p1369
sI2737
g54
sI2738
S'praxis engineering'
p1370
sI2740
S'duit'
p1371
sI2741
S'onyx government services llc'
p1372
sI2747
S'turas group'
p1373
sI2748
S'capital one'
p1374
sI2749
S'sos international ltd'
p1375
sI2753
S'booz allen hamilton'
p1376
sI2754
g54
sI2755
S'avid technology professionals'
p1377
sI2757
S'adp inc'
p1378
sI2761
S'technica corporation'
p1379
sI2762
g1307
sI2764
g1307
sI2765
S'aspiration software inc'
p1380
sI2768
S'booz allen hamilton'
p1381
sI2769
S'booz allen hamilton'
p1382
sI2773
g1043
sI2774
S'capital one'
p1383
sI2776
S'nhr global'
p1384
sI2778
S'leidos'
p1385
sI2783
S'capital one'
p1386
sI2784
S'georgia-pacific'
p1387
sI2785
S'adp'
p1388
sI2788
S'sotera defense solutions'
p1389
sI2789
S'adp'
p1390
sI2793
S'nhr global'
p1391
sI2796
g54
sI2798
S'leidos'
p1392
sI2799
g1276
sI2800
S'wiser company'
p1393
sI2801
S'concurrent technologies'
p1394
sI2803
g1307
sI2804
S'varen technologies'
p1395
sI2805
S'bae systems'
p1396
sI2806
S'leidos'
p1397
sI2808
S'carmax'
p1398
sI2813
g301
sI2814
S'bae systems'
p1399
sI2815
S'nuwave solutions'
p1400
sI2817
g54
sI2819
S'state virginia'
p1401
sI2820
g1276
sI2821
g970
sI2825
S'capital one'
p1402
sI2827
S'aerotek'
p1403
sI2828
S'red gate'
p1404
sI2829
S'the advisory board company'
p1405
sI2830
S'capital one'
p1406
sI2832
S'bytecubed'
p1407
sI2833
S'koch nitrogen company'
p1408
sI2836
S'booz allen hamilton'
p1409
sI2838
S'virginia tech'
p1410
sI2841
S'ge digital'
p1411
sI2842
S'eagle ray inc'
p1412
sI2843
S'science applications international'
p1413
sI2845
S'capital one'
p1414
sI2847
S'alex alternative experts inc'
p1415
sI2848
S'booz allen hamilton'
p1416
sI2849
S'genworth financial'
p1417
sI2850
S'technica corporation'
p1418
sI2852
S'adp inc'
p1419
sI2854
g54
sI2855
S'adp'
p1420
sI2856
S'capital one'
p1421
sI2857
S'altamira'
p1422
sI2858
S'the aerospace corporation'
p1423
sI2860
S'capital one'
p1424
sI2861
g1307
sI2863
g54
sI2866
S'adp inc'
p1425
sI2867
S'capital one'
p1426
sI2869
S'altamira'
p1427
sI2871
S'aptima'
p1428
sI2872
S'capital one'
p1429
sI2873
S'capital one'
p1430
sI2874
g54
sI2876
S'allied technology group inc'
p1431
sI2877
S'capital one'
p1432
sI2882
S'adp'
p1433
sI2883
S'leidos'
p1434
sI2885
S'capital one'
p1435
sI2886
g54
sI2888
S'caci'
p1436
sI2889
S'altamira'
p1437
sI2890
S'seneca resources'
p1438
sI2892
g1276
sI2893
S'booz allen hamilton'
p1439
sI2897
S'adp'
p1440
sI2900
S'adp'
p1441
sI2901
S'capital one'
p1442
sI8280
S'sotera defense solutions'
p1443
sI2905
S'booz allen hamilton'
p1444
sI2907
g1413
sI2909
S'applied research associates inc'
p1445
sI2910
S'bank ozarks'
p1446
sI2914
S'state virginia'
p1447
sI2917
S'lmigovernment consulting'
p1448
sI2918
S'itility'
p1449
sI2919
g970
sI2922
S'koch nitrogen company'
p1450
sI2926
S'chenega corporation'
p1451
sI2927
S'bae systems'
p1452
sI2930
S'adp'
p1453
sI2931
S'leidos'
p1454
sI2933
S'sotera defense solutions'
p1455
sI2934
S'mda information systems llc'
p1456
sI2937
S'capital one'
p1457
sI2943
S'capital one'
p1458
sI2947
g54
sI2948
S'capital one'
p1459
sI2949
S'praxis engineering'
p1460
sI2954
S'altamira'
p1461
sI2955
S'moseley technical services'
p1462
sI2956
S'integrity applications incorporated'
p1463
sI2957
S'booz allen hamilton'
p1464
sI2958
S'leidos'
p1465
sI2959
S'saic'
p1466
sI2961
S'engility corporation'
p1467
sI2963
S'capital one'
p1468
sI2965
S'nuwave solutions'
p1469
sI2966
S'turas group'
p1470
sI2967
S'reqroute inc'
p1471
sI2968
S'lmigovernment consulting'
p1472
sI2975
S'koch industries inc'
p1473
sI2976
S'adp'
p1474
sI2978
S'capital one'
p1475
sI2979
g1043
sI2981
S'capital one'
p1476
sI2982
S'caci'
p1477
sI2984
S'chenega corporation'
p1478
sI2985
S'the squires group'
p1479
sI2986
g1413
sI2990
S'sotera defense solutions'
p1480
sI2992
S'calibre'
p1481
sI2994
S'bae systems'
p1482
sI2995
S'adp inc'
p1483
sI2996
S'capital one'
p1484
sI2998
S'capital one'
p1485
sI2999
S'mantech international corporation'
p1486
sI3000
S'center shared services'
p1487
sI3001
S'sos international ltd'
p1488
sI3002
S'bitvoyant'
p1489
sI3003
S'integrity applications incorporated'
p1490
sI3005
S'ntrepid'
p1491
sI3007
S'adp'
p1492
sI3009
S'adp inc'
p1493
sI3012
S'leidos'
p1494
sI3015
S'snagajob'
p1495
sI3016
S'arctic slope regional corporation'
p1496
sI3018
S'leidos'
p1497
sI3021
S'state virginia'
p1498
sI3026
S'koch industries inc'
p1499
sI3027
g970
sI3028
S'booz allen hamilton'
p1500
sI3029
S'capital one'
p1501
sI3030
S'booz allen hamilton'
p1502
sI3032
S'sotera defense solutions'
p1503
sI3033
S'rgs associates inc'
p1504
sI3035
S'leidos'
p1505
sI3040
S'cardinalhire'
p1506
sI3041
S'bon secours health system inc'
p1507
sI3043
S'adp'
p1508
sI3044
S'asurion'
p1509
sI3045
S'adp inc'
p1510
sI3049
S'octo consulting group'
p1511
sI3050
S'ge digital'
p1512
sI3051
S'compugain solutions'
p1513
sI3052
S'cardinalhire'
p1514
sI3053
S'dcs corporation'
p1515
sI3054
S'booz allen hamilton'
p1516
sI3055
S'mantech international corporation'
p1517
sI3056
S'adp inc'
p1518
sI3059
S'praxis engineering'
p1519
sI3061
g1074
sI3062
S'rgs associates inc'
p1520
sI3063
S'adp'
p1521
sI3064
g970
sI3066
S'logistics management institute'
p1522
sI3069
S'capital one'
p1523
sI3070
S'capital one'
p1524
sI3073
g970
sI3081
S'techaed'
p1525
sI3083
S'capital one'
p1526
sI3086
S'capital one'
p1527
sI3087
S'leidos'
p1528
sI3090
S'adp'
p1529
sI3091
S'leidos'
p1530
sI3095
S'privia health'
p1531
sI3097
S'iconma l.l.c.'
p1532
sI3098
S'capital one'
p1533
sI3100
S'lmigovernment consulting'
p1534
sI3101
S'asrc federal holding'
p1535
sI3102
S'capital one'
p1536
sI3105
S'leidos'
p1537
sI3107
S'logistics management institute'
p1538
sI3108
S'capital one'
p1539
sI3110
S'syntelligent analytic solutions llc'
p1540
sI3111
S'capital one'
p1541
sI3112
S'saic'
p1542
sI3115
S'metrostar systems'
p1543
sI3119
S'neustar inc'
p1544
sI3120
S'capital one'
p1545
sI3122
S'vesta corporation'
p1546
sI3127
S'hewlett-packard company'
p1547
sI3128
S'marketo'
p1548
sI3129
S'cdk global'
p1549
sI3130
S'sprinklr'
p1550
sI3132
S'comscore inc'
p1551
sI7349
S'saic'
p1552
sI3136
S'all-in analytics'
p1553
sI3140
S'lam research'
p1554
sI3142
S'affinity health plan inc'
p1555
sI3144
S'mobiquity'
p1556
sI3149
S'cdk global'
p1557
sI3150
S'vdart inc'
p1558
sI3152
S'udacity'
p1559
sI3153
S'cdk global'
p1560
sI3154
g1554
sI3155
S'marketo inc'
p1561
sI3156
S'marketo inc'
p1562
sI3157
S'airbnb inc'
p1563
sI3159
S'umpqua bank'
p1564
sI3160
S'comscore inc'
p1565
sI3161
S'marketo'
p1566
sI3162
S'udacity'
p1567
sI3164
S'airbnb inc'
p1568
sI3165
S'all-in analytics'
p1569
sI3168
S'bluevolt'
p1570
sI3170
S'etech'
p1571
sI3172
S'udacity'
p1572
sI3173
S'nice systems'
p1573
sI3175
S'vesta corporation'
p1574
sI3176
S'airbnb inc'
p1575
sI3177
S'fei'
p1576
sI3179
S'cdk global'
p1577
sI3180
g1119
sI3181
S'airbnb inc'
p1578
sI3182
S'cdk global'
p1579
sI3183
S'ipsos north america'
p1580
sI3184
S'pitney bowes'
p1581
sI3185
g205
sI3186
S'cigna'
p1582
sI8259
S'saxon global'
p1583
sI3190
S'limra'
p1584
sI3193
S'open systems technologies'
p1585
sI3194
S'the hartford'
p1586
sI3196
g1581
sI3198
g205
sI3199
g205
sI3201
g1581
sI3203
S'reqroute inc'
p1587
sI3205
g205
sI3206
g205
sI3207
S'mckinsey'
p1588
sI3208
g1581
sI3209
S'fme us llc'
p1589
sI3212
S'coventry health care inc'
p1590
sI3214
g203
sI3215
S'limra'
p1591
sI3216
S'mckinsey'
p1592
sI3217
S'mckinsey'
p1593
sI3219
g205
sI3221
S'frontier communications'
p1594
sI3224
g1581
sI3230
S'jegs'
p1595
sI3231
g205
sI3233
g205
sI3234
S'coventry health care inc'
p1596
sI3238
g205
sI3239
g205
sI3241
g205
sI3242
S'reqroute inc'
p1597
sI3244
S'the hartford'
p1598
sI3245
g205
sI3246
S'charter communications'
p1599
sI3247
S'coventry health care inc'
p1600
sI3248
S'mckinsey'
p1601
sI3251
S'the hartford'
p1602
sI3254
g203
sI3255
S'ipsos'
p1603
sI3256
g1581
sI3257
g205
sI3259
g1581
sI3262
S'the travelers companies'
p1604
sI3263
S'mckinsey'
p1605
sI3265
S'espn'
p1606
sI3269
S'coventry health care inc'
p1607
sI3270
g1582
sI3273
g205
sI3277
S'hartford financial services group'
p1608
sI3279
S'ipsos'
p1609
sI3280
S'gartner'
p1610
sI3282
g205
sI3283
S'aliya'
p1611
sI3284
g205
sI3285
S'disney'
p1612
sI3287
g1581
sI3288
g1608
sI3289
g1581
sI3290
S'disney'
p1613
sI3292
g205
sI3295
S'the hartford'
p1614
sI3297
g205
sI3299
S'yale university'
p1615
sI3300
g1594
sI3301
S'coventry health care inc'
p1616
sI3302
g1610
sI3303
S'the hartford'
p1617
sI3304
g1581
sI3306
S'mckinsey'
p1618
sI3308
S'reqroute inc'
p1619
sI3309
g205
sI3310
g1581
sI3313
S'ipsos north america'
p1620
sI3314
g205
sI3315
g1608
sI3316
g1581
sI3317
g1599
sI3318
g1582
sI3322
S'dataminr'
p1621
sI3325
S'shopzilla.com'
p1622
sI3326
S'hulu'
p1623
sI3327
g368
sI3331
S'edison international'
p1624
sI3333
S'lattice engines'
p1625
sI3334
S'hoffmann-la roche inc'
p1626
sI3335
S'ford'
p1627
sI3336
g94
sI3337
g1119
sI3338
S'quora'
p1628
sI3339
S'nativo'
p1629
sI3341
S'logmein'
p1630
sI3342
S'le tote'
p1631
sI3344
S'varite'
p1632
sI3345
S'convertro'
p1633
sI3346
S'bny mellon'
p1634
sI3350
S'mckinsey'
p1635
sI3354
S'general assembly'
p1636
sI3355
S'nuna'
p1637
sI3356
g79
sI3357
S'ipsos'
p1638
sI3358
S'circleup'
p1639
sI3359
g79
sI3360
S'think big analytics'
p1640
sI3361
g852
sI3362
g79
sI3363
S'yume'
p1641
sI3364
S'bloomberg'
p1642
sI3365
S'pacific gas electric company'
p1643
sI3366
g852
sI3367
S'all-in analytics'
p1644
sI3368
S'all-in analytics'
p1645
sI3369
S'adobe systems'
p1646
sI3370
S'grindr'
p1647
sI3374
S'mayfield fund'
p1648
sI3376
S'sojern'
p1649
sI3378
S'ultimate software'
p1650
sI3379
S'app annie'
p1651
sI3380
S'beyondsoft group'
p1652
sI3381
S'ge healthcare'
p1653
sI3382
S'bill.com'
p1654
sI3383
S'24 7 inc'
p1655
sI3385
g301
sI3387
S'samba tv'
p1656
sI3388
S'a9'
p1657
sI3389
S'think big analytics'
p1658
sI3391
S'esurance'
p1659
sI3392
g967
sI3393
S'cavium'
p1660
sI3395
S'mcafee'
p1661
sI3398
S'electronics arts'
p1662
sI3399
S'airbnb inc'
p1663
sI3400
S'university california'
p1664
sI3401
g1343
sI3403
S'upwork'
p1665
sI3404
S'hoffmann-la roche inc'
p1666
sI3406
g1327
sI3407
S'huawei'
p1667
sI3409
S'stride health'
p1668
sI3410
S'tronc inc'
p1669
sI3411
S'zymergen'
p1670
sI3413
S'fliptop'
p1671
sI3414
S'intuit'
p1672
sI3415
S'adp'
p1673
sI3417
S'all-in analytics'
p1674
sI3418
S'c3 energy'
p1675
sI3419
S'kixeye'
p1676
sI3421
S'lawrence livermore national laboratory'
p1677
sI3422
S'mckinsey'
p1678
sI3423
S'chegg'
p1679
sI3424
g852
sI3425
g368
sI3426
S'hipmunk'
p1680
sI3429
g231
sI3430
S'aol'
p1681
sI3432
S'samsung electronics america inc'
p1682
sI3433
S'all-in analytics'
p1683
sI3434
g1672
sI3435
S'fitbit'
p1684
sI3436
S'a9'
p1685
sI3438
g1119
sI3439
S'all-in analytics'
p1686
sI3440
g630
sI3441
S'square'
p1687
sI3442
g368
sI3443
S'symantec'
p1688
sI3444
S'twilio inc'
p1689
sI3445
S'workday'
p1690
sI3447
S'huawei'
p1691
sI3448
S'hoffmann-la roche inc'
p1692
sI3449
S'auction.com'
p1693
sI3450
S'advantis global'
p1694
sI3451
S'a9'
p1695
sI3452
S'airbnb inc'
p1696
sI3454
S'glassdoor'
p1697
sI3455
S'square'
p1698
sI3457
S'ucsf'
p1699
sI3458
S'project aj+'
p1700
sI3459
S'agilent technologies'
p1701
sI3460
S'logmein'
p1702
sI3461
S'tripping.com'
p1703
sI3462
S'service now'
p1704
sI3465
S'levi strauss'
p1705
sI3466
S'infer'
p1706
sI3469
g1672
sI3470
S'zillow'
p1707
sI3471
S'appriss'
p1708
sI3474
S'codefights'
p1709
sI8299
S'mckinsey'
p1710
sI3477
S'department veterans affairs'
p1711
sI3478
S'faraday future'
p1712
sI3479
S'yodlee'
p1713
sI3480
S'lexisnexis'
p1714
sI3481
S'mayfield fund'
p1715
sI3482
g301
sI3483
S'intertrust'
p1716
sI3484
S'calliduscloud'
p1717
sI3486
S'coursera'
p1718
sI3489
S'opentable'
p1719
sI3490
g79
sI3491
S'edmunds.com'
p1720
sI3492
S'ebates'
p1721
sI3495
S'machine zone'
p1722
sI3497
S'coursera'
p1723
sI3498
S'capital one'
p1724
sI3499
S'riot games'
p1725
sI3500
g967
sI3502
S'machine zone'
p1726
sI3503
S'coursera'
p1727
sI3504
S'bsi financial'
p1728
sI3505
g1624
sI3507
g1119
sI3508
S'healthtap'
p1729
sI3509
S'first republic bank'
p1730
sI3510
S'remind'
p1731
sI3511
S'quora'
p1732
sI3512
S'the climate corporation'
p1733
sI3513
S'skillz'
p1734
sI3515
g1119
sI3516
S'airbnb inc'
p1735
sI3517
g332
sI3521
S'entelo'
p1736
sI3522
S'machine zone'
p1737
sI3523
S'paysafe'
p1738
sI3524
S'yelp inc'
p1739
sI3525
S'twitter'
p1740
sI3526
S'airbnb inc'
p1741
sI3527
g94
sI3529
S'all-in analytics'
p1742
sI3530
S'6sense'
p1743
sI3531
S'capital one'
p1744
sI3534
S'pacific gas electric company'
p1745
sI3536
S'intertrust'
p1746
sI3537
S'hoodline'
p1747
sI3538
g79
sI3539
S'move inc'
p1748
sI3540
S'greatcall'
p1749
sI3541
g94
sI3544
S'eventbrite'
p1750
sI3546
S'big fish games inc'
p1751
sI3549
S'snapchat'
p1752
sI3550
S'newfound recruiting'
p1753
sI3551
S'ipsos north america'
p1754
sI3552
S'american century investments'
p1755
sI3553
S'wal-mart'
p1756
sI3554
g1119
sI3558
S'lawrence livermore national laboratory'
p1757
sI3561
S'a9'
p1758
sI3563
S'cymer'
p1759
sI3564
S'uptown treehouse blog'
p1760
sI3567
S'spokeo'
p1761
sI3568
S'skillz'
p1762
sI3569
g79
sI3570
S'fitbit'
p1763
sI3571
S'zillow'
p1764
sI3572
g301
sI3573
g1701
sI3575
S'advantis global'
p1765
sI3576
S'opentable'
p1766
sI3577
g1672
sI3581
S'quality health strategies'
p1767
sI3582
g368
sI3585
g1053
sI3586
S'drawbridge'
p1768
sI3587
S'servicenow'
p1769
sI3589
S'faraday future'
p1770
sI3591
S'tealium'
p1771
sI3592
S'a9'
p1772
sI3593
S'outsource consulting services inc'
p1773
sI3594
g79
sI3598
S'lendinghome'
p1774
sI3599
S'the bank new york mellon'
p1775
sI3600
S'spokeo'
p1776
sI3602
S'first tech'
p1777
sI3603
S'huawei'
p1778
sI3604
S'experian'
p1779
sI3605
S'ge digital'
p1780
sI3607
S'krg technology inc'
p1781
sI3608
S'whisper'
p1782
sI3609
S'autogrid'
p1783
sI3612
S'proofpoint inc'
p1784
sI3614
S'hewlett-packard company'
p1785
sI3615
S'unisys'
p1786
sI3617
S'bold'
p1787
sI3619
S'airbnb inc'
p1788
sI3621
S'kixeye'
p1789
sI3622
g1646
sI3623
S'lending club'
p1790
sI3626
S'doximity'
p1791
sI3627
g852
sI3628
S'teradata'
p1792
sI3629
S'airbnb inc'
p1793
sI3630
S'wal-mart'
p1794
sI3631
S'mayfield fund'
p1795
sI3632
g79
sI3633
S'oculus vr'
p1796
sI3634
S'drawbridge'
p1797
sI3638
g1701
sI3639
S'think big analytics'
p1798
sI3640
S'workday gmbh'
p1799
sI3642
S'leantaas'
p1800
sI3645
S'oportun inc'
p1801
sI3648
S'advantis global'
p1802
sI3649
S'autogrid'
p1803
sI3650
S'sap'
p1804
sI3651
S'emdeon inc'
p1805
sI3653
S'talentburst'
p1806
sI3654
g653
sI3655
S'bmw group'
p1807
sI3656
S'match relevant'
p1808
sI3657
S'sap'
p1809
sI3658
S'medallia inc'
p1810
sI3659
S'chegg'
p1811
sI3660
S'healthtap'
p1812
sI3661
S'ring'
p1813
sI3665
S'zestfinance'
p1814
sI3666
S'about tesla'
p1815
sI3667
S'about tesla'
p1816
sI3668
S'intertrust'
p1817
sI3669
S'snapchat'
p1818
sI3670
g94
sI3673
S'wal-mart'
p1819
sI3675
S'space exploration technologies'
p1820
sI3677
g1051
sI3678
S'wms gaming'
p1821
sI3679
S'kpmg'
p1822
sI3680
S'accelon inc'
p1823
sI3681
S'snapchat'
p1824
sI3683
g1119
sI3685
S'acorns'
p1825
sI3686
S'etsy'
p1826
sI3690
g852
sI3693
S'saama'
p1827
sI3694
g368
sI3696
S'upstart'
p1828
sI3697
S'beyondsoft group'
p1829
sI3698
g94
sI3699
S'cloudera'
p1830
sI3700
S'factual'
p1831
sI3701
S'affirm'
p1832
sI3702
S'relx group'
p1833
sI3703
S'ten-x'
p1834
sI3705
S'ge digital'
p1835
sI3706
S'agilone'
p1836
sI3707
S'bio-rad'
p1837
sI3708
S'buzzfeed'
p1838
sI3710
S'adp inc'
p1839
sI3711
S'blizzard entertainment inc'
p1840
sI3712
S'ucla health'
p1841
sI3713
g1119
sI3714
g393
sI3716
g1051
sI3717
S'netflix'
p1842
sI3718
g368
sI3719
S'viasat'
p1843
sI3720
S's p global'
p1844
sI3722
g1705
sI3723
g1119
sI3725
S'project aj+'
p1845
sI3726
S'ehealth inc'
p1846
sI3727
S'the wonderful company llc'
p1847
sI3728
g938
sI3729
S'outsource consulting services inc'
p1848
sI3730
S'oportun inc'
p1849
sI3731
S'viasat'
p1850
sI3733
S'gap'
p1851
sI3734
g938
sI3735
S'california state university system'
p1852
sI3736
S'andiamo'
p1853
sI3737
S'ge oil gas'
p1854
sI3738
S'progress software'
p1855
sI3740
g1842
sI3741
S'tellapart'
p1856
sI3742
S'pinterest'
p1857
sI3745
S'quora'
p1858
sI3746
g1672
sI3747
S'atrilogy'
p1859
sI3750
g393
sI3751
S'infosys'
p1860
sI3752
S'nuna'
p1861
sI3754
S'yodlee'
p1862
sI3756
S'mayfield fund'
p1863
sI3758
S'credit karma'
p1864
sI3761
S'wal-mart'
p1865
sI3762
S'cardinalhire'
p1866
sI3763
S'hoodline'
p1867
sI3764
g1851
sI3765
S'meetme'
p1868
sI3766
g1672
sI3768
S'knorr bremse group'
p1869
sI3770
S'sandisk'
p1870
sI3772
g1792
sI3775
S'conversion logic'
p1871
sI3777
S'ge oil gas'
p1872
sI3779
S'celgene'
p1873
sI3780
S'sap'
p1874
sI3781
S'illumina'
p1875
sI3782
S'airware'
p1876
sI3783
S'chegg'
p1877
sI3785
S'advantis global'
p1878
sI3786
S'faraday future'
p1879
sI3787
g393
sI3788
g79
sI3789
S'gravity'
p1880
sI3790
S'meetme'
p1881
sI3791
S'ninthdecimal'
p1882
sI3792
g852
sI3793
S'vertisystem'
p1883
sI3796
S'kpmg'
p1884
sI3797
S'xad'
p1885
sI3799
g1053
sI3801
g938
sI3803
S'ten-x'
p1886
sI3806
S'krg technology inc'
p1887
sI3807
g1119
sI3809
S'zestfinance'
p1888
sI3811
S'incusol inc'
p1889
sI3812
S'think big analytics'
p1890
sI3814
S'lawrence livermore national laboratory'
p1891
sI3815
S'machine zone'
p1892
sI3816
S'yelp inc'
p1893
sI3817
S'snapchat'
p1894
sI3818
S'upstart'
p1895
sI3819
g173
sI3821
S'quid'
p1896
sI3823
S'huawei'
p1897
sI3824
S'booz allen hamilton'
p1898
sI3825
S'redolentech'
p1899
sI3827
S'affirm'
p1900
sI3828
S'first american financial'
p1901
sI3829
S'lattice engines'
p1902
sI3830
S'teksystems inc'
p1903
sI3831
S'a9'
p1904
sI3833
g368
sI3834
S'tillster'
p1905
sI3836
g1119
sI3837
g852
sI3838
S'thermo fisher scientific'
p1906
sI3839
S'tastemade'
p1907
sI3842
S'beyondsoft group'
p1908
sI3843
S'faraday future'
p1909
sI3845
S'twitter'
p1910
sI3847
S'jiwire inc'
p1911
sI3850
S'about tesla'
p1912
sI3852
g1646
sI3853
g1119
sI3854
g1119
sI3857
S'pacific gas electric company'
p1913
sI3858
S'asurion'
p1914
sI3859
S'averity'
p1915
sI3860
S'earnest'
p1916
sI3861
S'faraday future'
p1917
sI3862
S'samsung electronics america inc'
p1918
sI3863
g967
sI3864
g79
sI3865
S'weatherbill'
p1919
sI3867
S'match relevant'
p1920
sI3872
g332
sI3873
S'acorns'
p1921
sI3875
g368
sI3878
S'lending club'
p1922
sI3879
g368
sI3880
S'lifelock id analytics'
p1923
sI3881
S'sojern'
p1924
sI3882
g1624
sI3883
g393
sI3885
S'thomson reuters'
p1925
sI3887
S'zestfinance'
p1926
sI3888
S'edmunds'
p1927
sI3889
S'vdart inc'
p1928
sI3890
S'ucsf medical center'
p1929
sI3891
S'ancestry'
p1930
sI3892
g231
sI3893
S'hoffmann-la roche inc'
p1931
sI3895
S'ehealthinsurance services inc'
p1932
sI3896
g970
sI3900
S'grit matters'
p1933
sI3901
S'samsung sds america'
p1934
sI3903
S'a9'
p1935
sI3904
S'general assembly'
p1936
sI3906
S'circleup'
p1937
sI3907
S'buzzfeed'
p1938
sI3908
S'upstart'
p1939
sI3910
S'electronics arts'
p1940
sI3911
S'electronic arts'
p1941
sI3912
S'square'
p1942
sI3913
S'general assembly'
p1943
sI3914
S'rodan fields llc'
p1944
sI3916
S'cloudera'
p1945
sI3918
S'app annie'
p1946
sI3919
S'ucsf medical center'
p1947
sI3921
S'clorox'
p1948
sI3923
g1119
sI3924
S'whisper'
p1949
sI3925
S'ge oil gas'
p1950
sI3927
S'match relevant'
p1951
sI3928
S'whisper'
p1952
sI3930
S'stanford university'
p1953
sI3931
S'beyondsoft group'
p1954
sI3933
S'whisper'
p1955
sI3934
S'proteus digital health'
p1956
sI3935
S'square'
p1957
sI3936
g368
sI3937
S'ge oil gas'
p1958
sI3940
g1688
sI3941
S'hotel tonight'
p1959
sI3942
S'comprehensive health services'
p1960
sI3944
S'viasat'
p1961
sI3945
S'zestfinance'
p1962
sI3946
g79
sI3947
g938
sI3949
S'sap'
p1963
sI3950
S'union bank n.a.'
p1964
sI3952
S'reddit'
p1965
sI3953
S'autodesk'
p1966
sI3954
S'quora'
p1967
sI8315
S'cdk global'
p1968
sI3957
S'wal-mart'
p1969
sI3958
g368
sI3959
S'robert half international'
p1970
sI3960
S'ticketfly'
p1971
sI3962
S'huawei'
p1972
sI3963
S'vdart inc'
p1973
sI3966
S'the go daddy group inc'
p1974
sI3969
S'healthtap'
p1975
sI3972
g1672
sI3973
S'hewlett-packard company'
p1976
sI3974
S'first tech credit union'
p1977
sI3975
S'get it mobile'
p1978
sI3976
S'radius intelligence'
p1979
sI3977
S'move inc'
p1980
sI3978
S'advantis global'
p1981
sI3979
S'akamai technologies inc'
p1982
sI3981
S'ipsos north america'
p1983
sI3982
S'comprehensive health services'
p1984
sI8316
S'bank america corporation'
p1985
sI3986
S'kpmg'
p1986
sI3988
S'matchpoint solutions'
p1987
sI3989
S'think big analytics'
p1988
sI3992
S'hoffmann-la roche inc'
p1989
sI3993
g938
sI3994
S'graphiq'
p1990
sI3995
S'gametime'
p1991
sI3998
S'cloudera'
p1992
sI3999
S'dropbox'
p1993
sI4001
S'graphiq'
p1994
sI4002
S'rocksbox'
p1995
sI4005
g1842
sI4006
S'affirm'
p1996
sI4008
S'advantis global'
p1997
sI4009
S'zymergen'
p1998
sI4010
S'city hope'
p1999
sI4011
S'faraday future'
p2000
sI4012
g1327
sI4013
g1842
sI4014
S'stitch fix'
p2001
sI4015
S'nuna'
p2002
sI4016
S'lifelock id analytics'
p2003
sI4017
S'linkedin'
p2004
sI4021
g1966
sI4026
S'counsyl'
p2005
sI4027
S'key business solutions inc'
p2006
sI4028
g655
sI4030
S'remind101'
p2007
sI4032
S'capital one'
p2008
sI4036
g393
sI4037
S'bmc software'
p2009
sI4038
S'ge oil gas'
p2010
sI4040
g1906
sI4041
g1792
sI4042
S'a9'
p2011
sI4044
g1053
sI4045
S'cloudera'
p2012
sI4048
S'yume'
p2013
sI4049
S'dnv gl'
p2014
sI4050
S'counsyl'
p2015
sI4053
g1613
sI4054
S'lawrence livermore national laboratory'
p2016
sI4055
S'marketshare'
p2017
sI4056
g1941
sI4057
g231
sI4059
S'redolentech'
p2018
sI4060
S'ultimate software'
p2019
sI4061
S'the nielsen company llc'
p2020
sI4063
S'sap'
p2021
sI4064
S'talentburst'
p2022
sI4067
S'csu northridge'
p2023
sI4069
S'proteus digital health'
p2024
sI4070
S'tillster'
p2025
sI4071
g1119
sI4072
S'kpmg'
p2026
sI4073
S'a9'
p2027
sI8319
S'oportun inc'
p2028
sI4076
g1842
sI4077
g79
sI4079
S'osource'
p2029
sI4080
S'jawbone'
p2030
sI4081
S'fanatics inc'
p2031
sI4082
g938
sI4083
S'acorns'
p2032
sI4084
S'the bank new york mellon corporation'
p2033
sI4085
S'twitch'
p2034
sI4087
S'vmware inc'
p2035
sI4088
S'zestfinance'
p2036
sI4090
g1851
sI4091
S'coursera'
p2037
sI4092
S'usm business systems inc'
p2038
sI4093
g368
sI4095
S'a9'
p2039
sI4096
g967
sI4097
S'sonsoft inc'
p2040
sI4099
g1906
sI4100
S'liveramp'
p2041
sI4104
S'machine zone'
p2042
sI4106
g1612
sI4108
S'agilone'
p2043
sI4109
g1701
sI4110
S'move inc'
p2044
sI4111
g94
sI4112
S'stitchfix'
p2045
sI4114
S'hoffmann-la roche inc'
p2046
sI4115
g1842
sI4116
g1554
sI4118
g1646
sI4119
S'ptp'
p2047
sI4120
S'zestfinance'
p2048
sI4123
g301
sI4124
S'tellapart'
p2049
sI4125
S'conviva'
p2050
sI4126
S'ehealthinsurance services inc'
p2051
sI4129
S'jabil circuit'
p2052
sI4130
S'faraday future'
p2053
sI4131
S'ca'
p2054
sI4133
S'western digital'
p2055
sI4134
g1624
sI4136
S'project aj+'
p2056
sI4137
S'opentable'
p2057
sI4138
g1140
sI4139
S'the climate corporation'
p2058
sI4144
g938
sI4145
S'faraday future'
p2059
sI4148
S'nomis solutions'
p2060
sI4149
S'affirm'
p2061
sI4150
S'electronics arts'
p2062
sI4152
S'a9'
p2063
sI4153
S'wal-mart'
p2064
sI4154
S'monitor 360'
p2065
sI4155
S'fanatics inc'
p2066
sI4156
S'reddit'
p2067
sI4158
S'advantis global'
p2068
sI4159
S'ehealth inc'
p2069
sI4160
S'ingrooves music group'
p2070
sI4161
g1672
sI4162
S'bio-rad'
p2071
sI4164
S'sonsoft inc'
p2072
sI4165
g1646
sI4167
S'product madness'
p2073
sI4168
g1327
sI4169
S'chegg'
p2074
sI4170
S'chegg'
p2075
sI4171
S'sojern'
p2076
sI4172
S'thomson reuters'
p2077
sI4173
S'philips'
p2078
sI4174
S'airbnb inc'
p2079
sI4176
S'zestfinance'
p2080
sI4177
S'ehealth inc'
p2081
sI4178
S'conviva'
p2082
sI4179
S'fireeye'
p2083
sI4180
S'counsyl'
p2084
sI4181
S'lawrence livermore national laboratory'
p2085
sI4184
S'first tech credit union'
p2086
sI4185
S'6sense'
p2087
sI4187
S'twitter'
p2088
sI4188
S'c3 energy'
p2089
sI4189
S'gravity'
p2090
sI4190
S'sap'
p2091
sI4191
S'kaiser permanente'
p2092
sI4192
g1053
sI4193
S'first republic bank'
p2093
sI4194
S'thomson reuters'
p2094
sI4197
S'sidecar'
p2095
sI4198
g1119
sI4200
S'bsi financial'
p2096
sI4201
S'inmobi'
p2097
sI4202
S'entelo'
p2098
sI4203
S'cavium'
p2099
sI4205
S'bold'
p2100
sI4206
S'thousandeyes'
p2101
sI4207
S'pg e corporation'
p2102
sI4209
g970
sI4211
Vomega solution inc
p2103
sI4212
S'the nielsen company'
p2104
sI4213
S'chegg'
p2105
sI4214
S'mckinsey'
p2106
sI4215
S'upstart'
p2107
sI4217
S'ge digital'
p2108
sI4218
S'mckinsey'
p2109
sI4219
S'coventry health care inc'
p2110
sI4221
g301
sI4222
S'acquia'
p2111
sI4223
S'analog devices'
p2112
sI4224
S'wayfair llc'
p2113
sI4225
S'mckinsey'
p2114
sI4228
S'massachusetts institute technology'
p2115
sI4229
S'wayfair llc'
p2116
sI4232
g301
sI4233
S'rkg'
p2117
sI4235
S'vantiv'
p2118
sI4236
g301
sI8266
S'oportun inc'
p2119
sI4238
g1104
sI4244
S'united health group'
p2120
sI4248
S'mobiquity'
p2121
sI4250
S'massmutual financial group'
p2122
sI4252
S'dataxu'
p2123
sI4253
S'coventry health care inc'
p2124
sI4254
g205
sI4255
S'the nielsen company llc'
p2125
sI4266
g203
sI4268
g203
sI4270
S'blackbaud'
p2126
sI4272
S'mckinsey'
p2127
sI4275
g301
sI4281
S'roberts recruiting'
p2128
sI4283
S'panjiva'
p2129
sI4287
S'wayfair llc'
p2130
sI4288
g301
sI4289
g205
sI4290
g301
sI4292
S'coventry health care inc'
p2131
sI4297
S'roberts recruiting'
p2132
sI4298
S'mckinsey'
p2133
sI4299
g205
sI4305
S'panjiva'
p2134
sI4306
S'novartis pharmaceuticals'
p2135
sI4310
S'mckinsey'
p2136
sI4314
S'athenahealth'
p2137
sI4317
S'mckinsey'
p2138
sI4318
S'coventry health care inc'
p2139
sI4319
S'northeastern university'
p2140
sI4321
S'freebird'
p2141
sI4324
S'mit lincoln laboratory'
p2142
sI4328
S'spotify'
p2143
sI4329
g205
sI4338
S'panjiva'
p2144
sI4340
S'wayfair llc'
p2145
sI4341
S'mckinsey'
p2146
sI4345
S'coventry health care inc'
p2147
sI4350
g301
sI4351
S'jobs infor'
p2148
sI4355
S'coventry health care inc'
p2149
sI4356
S'liberty mutual holding company inc'
p2150
sI4357
g205
sI4359
g205
sI4360
g653
sI4361
S'wayfair llc'
p2151
sI4362
S'panjiva'
p2152
sI4363
S'mit lincoln laboratory'
p2153
sI4364
S'roberts recruiting'
p2154
sI4365
S'twitter'
p2155
sI4366
S'ge corporate'
p2156
sI4367
S'merkle inc'
p2157
sI4369
g205
sI4370
g205
sI4381
S'virgin pulse'
p2158
sI4382
S'national grid'
p2159
sI4386
S'green mountain coffee roasters'
p2160
sI4387
S'janys analytics'
p2161
sI4389
S"brigham women's hospital"
p2162
sI4390
g203
sI4391
S'new balance'
p2163
sI8320
S'kpmg'
p2164
sI4397
S'coventry health care inc'
p2165
sI4398
S'agero inc'
p2166
sI4400
g301
sI4402
g205
sI4404
S'plymouth rock'
p2167
sI4405
S'mckinsey'
p2168
sI4406
g205
sI4407
g205
sI4408
S'wayfair llc'
p2169
sI4409
g1581
sI4411
S'mckinsey'
p2170
sI4412
S'n a'
p2171
sI4418
S'the mcgraw-hill companies education'
p2172
sI4419
S'recorded future'
p2173
sI4420
S'infor'
p2174
sI4423
S'dentaquest'
p2175
sI4424
g205
sI4425
S'abt srbi'
p2176
sI4428
S'mckinsey'
p2177
sI4429
S'rovi corporation'
p2178
sI4434
S'philips'
p2179
sI4436
g301
sI4442
S'partners healthcare system'
p2180
sI4443
g1966
sI4447
S'janys analytics'
p2181
sI4450
S'cengage learning'
p2182
sI4451
S'general assembly'
p2183
sI4454
S'dentaquest'
p2184
sI4456
S'mckinsey'
p2185
sI4457
S'athenahealth'
p2186
sI4458
S'virgin pulse'
p2187
sI4459
S'wayfair llc'
p2188
sI4462
S'staples'
p2189
sI4463
S'everquote'
p2190
sI4464
g301
sI3475
S'airbnb inc'
p2191
sI4469
S'ironwood pharmaceuticals inc'
p2192
sI4470
g205
sI4473
S'pillpack'
p2193
sI4477
S'analysis group'
p2194
sI4478
S'genscape'
p2195
sI4480
S'wayfair llc'
p2196
sI4481
S'specific media'
p2197
sI4482
S'dana-farber cancer institute'
p2198
sI4483
g215
sI4484
S'harvard pilgrim health care'
p2199
sI4486
S'press ganey'
p2200
sI4487
g203
sI4489
g205
sI4490
g205
sI4491
S'partners healthcare system'
p2201
sI4492
S'levi ray shoup inc'
p2202
sI4495
S'curoverse'
p2203
sI4496
g301
sI4499
S'roberts recruiting'
p2204
sI4505
S'bey'
p2205
sI4508
S'everquote'
p2206
sI4511
S'tripadvisor'
p2207
sI4514
S'true fit'
p2208
sI4515
S'liberty mutual'
p2209
sI4516
S'tripadvisor'
p2210
sI4517
S'panjiva'
p2211
sI4518
S'coventry health care inc'
p2212
sI4519
S'dataxu'
p2213
sI4520
g332
sI4524
S'ge healthcare'
p2214
sI8334
S'dell inc'
p2215
sI4527
S'mckinsey'
p2216
sI4529
g332
sI4530
S'athenahealth'
p2217
sI4531
S'wayfair llc'
p2218
sI4532
S'philips'
p2219
sI4533
S'mckinsey'
p2220
sI4534
S'the mathworks inc'
p2221
sI4536
S'massachusetts general hospital mgh'
p2222
sI4537
S'rue la la'
p2223
sI4539
S'city boston ma'
p2224
sI4541
S'spotify'
p2225
sI4548
g1581
sI4549
S'circle'
p2226
sI4560
g301
sI4562
g205
sI4564
S'enernoc inc'
p2227
sI4566
g205
sI4570
S'emd millipore'
p2228
sI4577
S'roberts recruiting'
p2229
sI4578
S'mckinsey'
p2230
sI4579
S'infor'
p2231
sI4582
S'biogen'
p2232
sI4583
S'thermalin inc'
p2233
sI4585
S'national grid'
p2234
sI4590
S'mathworks inc'
p2235
sI4591
S'keurig'
p2236
sI4592
S'dataxu'
p2237
sI4597
S'mckinsey'
p2238
sI4603
S'merck'
p2239
sI4606
g205
sI4608
S'tripadvisor llc'
p2240
sI4611
S'zipcar inc'
p2241
sI4612
S'the hartford'
p2242
sI4616
S'aspentech'
p2243
sI4618
S'harvard university'
p2244
sI4623
S'blackbaud'
p2245
sI4625
g653
sI4627
S'ge oil gas'
p2246
sI4629
S'sqrrl'
p2247
sI4633
S'coventry health care inc'
p2248
sI4637
S'dentaquest'
p2249
sI4639
S'mckinsey'
p2250
sI4641
S'wayfair llc'
p2251
sI4642
S'athenahealth'
p2252
sI4643
S'genscape'
p2253
sI4644
S'coventry health care inc'
p2254
sI4647
g2189
sI4649
S'mckinsey'
p2255
sI4652
S'panjiva'
p2256
sI4655
S'mckinsey'
p2257
sI4656
S'mckinsey'
p2258
sI4657
S'mckinsey'
p2259
sI4658
S'general assembly'
p2260
sI4660
g301
sI4662
g301
sI4665
S'tripadvisor llc'
p2261
sI4668
S'coventry health care inc'
p2262
sI4669
S'constant contact inc'
p2263
sI4672
g203
sI4674
S'viasat'
p2264
sI4675
S'mobiquity'
p2265
sI4678
S'tripadvisor'
p2266
sI4679
g203
sI4680
g205
sI4681
S'mckinsey'
p2267
sI4683
S'united health group'
p2268
sI4689
S"america's test kitchen"
p2269
sI4691
S'tripadvisor'
p2270
sI4693
S'tripadvisor'
p2271
sI4694
S'teletech holdings inc'
p2272
sI4704
g205
sI4710
g967
sI4712
g301
sI4713
S'perkinelmer'
p2273
sI4717
S'americas test kitchen'
p2274
sI4718
S'ge healthcare'
p2275
sI4719
S'genscape'
p2276
sI4720
g301
sI4721
S'mckinsey'
p2277
sI4722
g203
sI4723
S'roberts recruiting'
p2278
sI4725
S'kp recruiting group'
p2279
sI4732
S'clypd'
p2280
sI4733
S'massmutual financial group'
p2281
sI4735
g332
sI4736
g203
sI4739
S'ricefw technologies inc'
p2282
sI4740
S'novartis pharmaceuticals'
p2283
sI4741
S'panjiva'
p2284
sI4742
S'wayfair llc'
p2285
sI4744
S'ge oil gas'
p2286
sI4748
S'software guidance'
p2287
sI4752
g215
sI4753
S'liberty mutual holding company inc'
p2288
sI4754
S'novartis pharmaceuticals'
p2289
sI4758
S'tripadvisor'
p2290
sI4759
S'coventry health care inc'
p2291
sI4762
S'ricefw technologies inc'
p2292
sI4763
S'mckinsey'
p2293
sI4764
S'acquia'
p2294
sI4766
S'athenahealth'
p2295
sI8215
S'eclerx'
p2296
sI4772
S'mckinsey'
p2297
sI4775
S'dana-farber cancer institute'
p2298
sI4776
S'enernoc inc'
p2299
sI4778
S'percepta'
p2300
sI4779
S'cazena'
p2301
sI4781
S'mckinsey'
p2302
sI4782
g205
sI4783
S'aspentech'
p2303
sI4784
S'analysis group'
p2304
sI4785
S'roberts recruiting'
p2305
sI4788
S'hanover insurance group'
p2306
sI4791
S'mckinsey'
p2307
sI4811
S'runzheimer'
p2308
sI4812
g807
sI4815
S'foot locker'
p2309
sI4819
g1129
sI4820
S'johnson controls'
p2310
sI4823
S'eaton'
p2311
sI4825
g807
sI8344
S'booz allen hamilton'
p2312
sI4828
S'paragon development systems'
p2313
sI4830
g2310
sI4832
S'cuna mutual group'
p2314
sI4833
S'northwestern mutual'
p2315
sI4836
S'eaton'
p2316
sI4838
S'us bank'
p2317
sI4839
S'dentaquest'
p2318
sI4840
S'grande'
p2319
sI4842
S"lands' end"
p2320
sI4846
S'grande'
p2321
sI4847
S'gmr marketing'
p2322
sI4852
S'kohler company'
p2323
sI4853
S'schneider trucking'
p2324
sI4854
S"lands' end"
p2325
sI4857
g1137
sI4860
g1137
sI4861
g1138
sI4863
g1137
sI4865
g1137
sI4866
g1138
sI4870
S'emory healthcare'
p2326
sI4871
S'connolly'
p2327
sI4874
S'at t inc'
p2328
sI4875
S'general assembly'
p2329
sI4876
S'cox automotive'
p2330
sI4880
S'kpmg'
p2331
sI4881
S'suntrust banks'
p2332
sI4887
S'emory university'
p2333
sI4888
S'adp'
p2334
sI4892
S'adp'
p2335
sI4899
S'cox enterprises'
p2336
sI4900
S'adp'
p2337
sI4902
S'adp'
p2338
sI4903
S'adp'
p2339
sI4907
S'ncr'
p2340
sI4908
S'honeywell'
p2341
sI4911
S'adp'
p2342
sI4913
S'adp'
p2343
sI4914
S'adp inc'
p2344
sI4915
S'insys group'
p2345
sI4917
S'adp'
p2346
sI4918
S'mailchimp'
p2347
sI4919
S'softnice inc'
p2348
sI4923
S'newell rubbermaid'
p2349
sI4926
S'travelclick'
p2350
sI4928
S'kpmg'
p2351
sI4930
S'ignitionone'
p2352
sI4931
g2332
sI4932
S'ignitionone'
p2353
sI4933
S'cox enterprises'
p2354
sI4935
S'adp inc'
p2355
sI4938
S'cox enterprises'
p2356
sI4940
S'kpmg'
p2357
sI4942
g1688
sI4948
S'adp'
p2358
sI4949
S'emory healthcare'
p2359
sI4951
g79
sI4952
S'kpmg'
p2360
sI4953
S'adp inc'
p2361
sI4954
S'adp'
p2362
sI4956
S'emory university'
p2363
sI4957
S'cox automotive'
p2364
sI4959
S'ge digital'
p2365
sI4960
g393
sI4962
S'adp'
p2366
sI4963
S'home depot'
p2367
sI4964
S'e-z-go'
p2368
sI4965
S'honeywell'
p2369
sI4967
S'siemens france'
p2370
sI4968
S'perficient inc'
p2371
sI4970
S'adp'
p2372
sI4971
S'adp inc'
p2373
sI4974
S'adp'
p2374
sI4978
S'adp inc'
p2375
sI4980
g79
sI4984
S'connolly'
p2376
sI4985
S'honeywell'
p2377
sI4988
g1233
sI4991
S'general assembly'
p2378
sI4995
S'adp'
p2379
sI4997
S'adp'
p2380
sI4998
S'adp inc'
p2381
sI4999
g393
sI5006
g794
sI5007
S'kpmg'
p2382
sI5010
S'adp'
p2383
sI5011
S'siemens france'
p2384
sI5013
S'cox enterprises'
p2385
sI5015
S'rentpath'
p2386
sI5016
g2367
sI5017
S'kpmg'
p2387
sI5020
S'perficient inc'
p2388
sI5021
S'adp'
p2389
sI5023
S'lorven technologies inc'
p2390
sI5024
S'mobiquity'
p2391
sI5026
S'softnice inc'
p2392
sI5028
S'ignitionone'
p2393
sI5030
S'koch nitrogen company'
p2394
sI5032
g393
sI5033
g173
sI5037
S'equifax'
p2395
sI5039
S'adp'
p2396
sI5040
S'emory university'
p2397
sI5041
S"arby's llc"
p2398
sI5045
S'assurant'
p2399
sI5050
S'adp inc'
p2400
sI5051
S'adp inc'
p2401
sI5052
S'adp inc'
p2402
sI5055
S'hearst business media'
p2403
sI5060
g173
sI5061
S'emory healthcare'
p2404
sI5062
S'kpmg'
p2405
sI5063
S'adp'
p2406
sI5067
S"macy's"
p2407
sI5072
S'general assembly'
p2408
sI5076
S'chick-fil-a inc'
p2409
sI5079
S'adp'
p2410
sI5081
S'adp'
p2411
sI5082
S'lancope'
p2412
sI5083
S'emory healthcare'
p2413
sI5084
S'adp'
p2414
sI5085
S'turner broadcasting'
p2415
sI5086
S'honeywell'
p2416
sI5088
S'adp inc'
p2417
sI5089
S'honeywell'
p2418
sI5092
S'siemens'
p2419
sI5094
S'adp'
p2420
sI5095
S'mckinsey'
p2421
sI5098
S'ignitionone'
p2422
sI5099
S'varian medical systems'
p2423
sI5101
S'adp'
p2424
sI5103
S'mckesson'
p2425
sI5104
S'adp'
p2426
sI5107
S'assurant'
p2427
sI5108
S'university georgia'
p2428
sI5109
S'adp'
p2429
sI5111
S'adp inc'
p2430
sI5112
S'bank america corporation'
p2431
sI5116
S'adp'
p2432
sI5117
S'siemens'
p2433
sI5118
S'socrata'
p2434
sI5119
S'honeywell'
p2435
sI5120
g393
sI5121
S'travelport'
p2436
sI5122
S'at t inc'
p2437
sI5123
S'mckinsey'
p2438
sI5124
S'honeywell'
p2439
sI5125
g2395
sI5129
g2423
sI5131
S'mckinsey'
p2440
sI5132
S'comprehensive health services'
p2441
sI5134
S'adp inc'
p2442
sI5137
S'emory university'
p2443
sI5138
S'honeywell'
p2444
sI8321
S'at t'
p2445
sI5143
S'adp'
p2446
sI5144
S"macy's"
p2447
sI5147
S'intercontinental hotels group'
p2448
sI5148
g2395
sI5155
g2340
sI5157
g173
sI5160
S'kpmg'
p2449
sI5163
S'honeywell'
p2450
sI5168
g173
sI5173
S'adp inc'
p2451
sI5174
S'turner broadcasting'
p2452
sI5176
S'adp'
p2453
sI5178
S'adp'
p2454
sI5179
S'southern'
p2455
sI5182
S'cox auto inc'
p2456
sI5183
S'kpmg'
p2457
sI5184
g2399
sI5185
S'adp'
p2458
sI5186
S'kpmg'
p2459
sI5187
S'agco'
p2460
sI5191
S'ge power'
p2461
sI5193
S'veredus corporation'
p2462
sI5195
S'vanderlande industries'
p2463
sI5197
S'honeywell'
p2464
sI5199
g2367
sI5200
S'adp'
p2465
sI5201
S'georgia-pacific'
p2466
sI5202
g2399
sI5203
S'reqroute inc'
p2467
sI5206
S'mckinsey'
p2468
sI5210
g2367
sI5212
S'adp'
p2469
sI5215
S'suntrust'
p2470
sI5217
S'cox auto inc'
p2471
sI5219
S'simplepart'
p2472
sI5222
S'adp'
p2473
sI5224
S'adp'
p2474
sI5228
S'naval nuclear laboratory'
p2475
sI5229
S'kpmg'
p2476
sI5231
S'marlin business services corp'
p2477
sI5232
S'solvay chemicals'
p2478
sI5234
S'relx group'
p2479
sI5239
S'pnc'
p2480
sI5243
S'amerisourcebergen'
p2481
sI5244
S'medexpress'
p2482
sI5246
S'ims health'
p2483
sI5248
S'amerihealth caritas health plan'
p2484
sI5249
S'relx group'
p2485
sI5250
S'tekpartners'
p2486
sI5251
S'averity'
p2487
sI5252
S'reqroute inc'
p2488
sI5258
S'kpmg'
p2489
sI5259
S'kpmg'
p2490
sI5260
S'mobiquity'
p2491
sI5261
S'liberty jobs'
p2492
sI5262
S'amerihealth caritas'
p2493
sI5266
S'kpmg'
p2494
sI5267
S'kpmg'
p2495
sI5270
S'university pennsylvania'
p2496
sI5278
S'ims health'
p2497
sI5282
S'ors partners'
p2498
sI5287
S'reqroute inc'
p2499
sI5289
S'kpmg'
p2500
sI5290
S'main line health'
p2501
sI5291
S'pra health sciences'
p2502
sI5294
S'ims health'
p2503
sI5295
S'saic'
p2504
sI5297
S'duolingo'
p2505
sI5308
S'amerihealth caritas health plan'
p2506
sI5314
g1413
sI5316
S'medecision'
p2507
sI5320
S'all-in analytics'
p2508
sI5321
S'innovation works inc'
p2509
sI5322
S'university pennsylvania'
p2510
sI5323
S'mckinsey'
p2511
sI5324
S'university pennsylvania'
p2512
sI5326
S'vdart inc'
p2513
sI5330
g2481
sI5332
S'mckinsey'
p2514
sI5335
S'te connectivity'
p2515
sI5337
S'l t infotech'
p2516
sI5341
S'lorven technologies inc'
p2517
sI5343
S'mobiquity'
p2518
sI5349
S'ims health'
p2519
sI5350
S'mobiquity'
p2520
sI5351
S'mckinsey'
p2521
sI5352
S'meetme'
p2522
sI5353
g205
sI5354
S'kpmg'
p2523
sI5359
S'university pennsylvania'
p2524
sI5362
S'mckinsey'
p2525
sI5370
S'mobiquity'
p2526
sI5372
S'main line health'
p2527
sI5376
S'numeric recruiting staffing'
p2528
sI5377
S'mobiquity'
p2529
sI5378
S'mckinsey'
p2530
sI5380
S'innovation works inc'
p2531
sI5384
S'numeric recruiting staffing'
p2532
sI5385
S'duolingo'
p2533
sI5387
S'averity'
p2534
sI5392
S'mckinsey'
p2535
sI5395
S'duke university'
p2536
sI5396
S'maxpoint interactive'
p2537
sI5397
S'maxpoint interactive'
p2538
sI5399
S'laboratory corporation america'
p2539
sI5401
g301
sI5405
S'blue cross blue shield north carolina'
p2540
sI5406
S'automated insights'
p2541
sI5408
S'sas'
p2542
sI5412
g301
sI5414
S'unc health care systems'
p2543
sI5416
S'bank america corporation'
p2544
sI5417
g215
sI5420
S'act consulting'
p2545
sI5421
S'red hat'
p2546
sI5422
S'ciber'
p2547
sI5423
S'mckinsey'
p2548
sI5424
S'carolinas healthcare system'
p2549
sI5425
S'bank america corporation'
p2550
sI5426
S'sas'
p2551
sI5429
g173
sI5431
g1119
sI5432
S'siemens corporation'
p2552
sI5433
S'maxpoint interactive'
p2553
sI5434
S'ciber novasoft'
p2554
sI5437
g301
sI5439
g1119
sI5440
S'ciber'
p2555
sI5441
S'the carolinas center medical excellence'
p2556
sI5443
S'mckinsey'
p2557
sI5444
S'act consulting'
p2558
sI5445
S'carolinas medical center-union'
p2559
sI5449
S'metlife'
p2560
sI5451
g2560
sI5452
S'red ventures'
p2561
sI5454
S'the university north carolina'
p2562
sI5455
S'ciber novasoft'
p2563
sI5456
S'maxpoint interactive'
p2564
sI5461
S'maxpoint interactive'
p2565
sI5462
S'bank america corporation'
p2566
sI5463
S'bank america corporation'
p2567
sI5464
g301
sI5465
S'ciber'
p2568
sI5466
g173
sI5469
S'sas'
p2569
sI5470
g301
sI5472
S'comprehensive health services'
p2570
sI5474
S'progress energy inc'
p2571
sI5477
g301
sI5485
S'the hartford'
p2572
sI5486
g2560
sI5487
S'red ventures'
p2573
sI5488
S'the university north carolina'
p2574
sI5489
S'cdk global'
p2575
sI5490
S'red ventures'
p2576
sI5492
S'siemens'
p2577
sI5493
S'advance auto parts'
p2578
sI5494
S'the carolinas center medical excellence'
p2579
sI5495
g2560
sI5496
S'maxpoint interactive'
p2580
sI5498
S'heartland payment systems'
p2581
sI5504
g173
sI5509
g1417
sI5511
S'carolinas healthcare system'
p2582
sI5512
g173
sI5523
S'sas'
p2583
sI5524
S'bank america corporation'
p2584
sI5528
g2481
sI5529
S'genworth financial'
p2585
sI5531
S'the university north carolina'
p2586
sI5535
S'mckinsey'
p2587
sI5538
S'red hat'
p2588
sI5540
S'duke energy'
p2589
sI5543
S'ciber novasoft'
p2590
sI5544
S'sas'
p2591
sI5546
g173
sI5547
S'comprehensive health services'
p2592
sI5549
g173
sI5550
S'red ventures'
p2593
sI5554
S'sas'
p2594
sI5555
S'netapp'
p2595
sI5556
g173
sI5557
S'tekpartners'
p2596
sI5559
S'psg global solutions'
p2597
sI5560
S'tekpartners'
p2598
sI5561
S'carolinas medical center-union'
p2599
sI5562
S'southeastern health'
p2600
sI5563
g1119
sI5564
g173
sI5567
S'tekpartners'
p2601
sI5569
S'mckinsey'
p2602
sI5571
S'unc health care'
p2603
sI5572
S'red ventures'
p2604
sI5578
g2589
sI5579
S'maxpoint interactive'
p2605
sI5581
S'ally'
p2606
sI5584
S'ge digital'
p2607
sI5586
S'adp'
p2608
sI5588
S'zefr'
p2609
sI5590
S'ball'
p2610
sI5591
S'comprehensive health services'
p2611
sI5592
S'mobiquity'
p2612
sI5593
S'office depot'
p2613
sI5594
g2310
sI5599
g2052
sI5600
S'hertz corporation'
p2614
sI5602
S'adp'
p2615
sI5604
g1613
sI5605
S'mobiquity'
p2616
sI5607
S'22squared'
p2617
sI5609
S'urpan technologies inc'
p2618
sI5613
S'mobiquity'
p2619
sI5616
S'mobiquity'
p2620
sI5617
S'adventist health system'
p2621
sI5619
g85
sI5622
S'vdart inc'
p2622
sI5623
S'hertz'
p2623
sI5625
S'visa'
p2624
sI5628
S'adp inc'
p2625
sI5630
S'22squared'
p2626
sI5634
g85
sI5635
S'comprehensive health services'
p2627
sI5636
S'mobiquity'
p2628
sI5637
S'hertz'
p2629
sI5639
S'deluxe corporation'
p2630
sI5644
S'adp inc'
p2631
sI5646
S'healthesystems'
p2632
sI5648
S'mobiquity'
p2633
sI5653
S'blue cross blue shield florida'
p2634
sI5657
S'mobiquity'
p2635
sI5658
S'adp'
p2636
sI5661
g85
sI5662
S'the nielsen company llc'
p2637
sI5663
S"ripley's believe it not"
p2638
sI5665
S'mckinsey'
p2639
sI5666
S'siemens'
p2640
sI5667
S'hertz'
p2641
sI5670
S'leidos'
p2642
sI5671
S'bank america corporation'
p2643
sI5674
Vchaperlin jacob
p2644
sI5679
S'marketing experiments'
p2645
sI5681
S'adt'
p2646
sI5682
S'the nielsen company llc'
p2647
sI7774
S'snagajob'
p2648
sI5686
S'deluxe corporation'
p2649
sI5687
g85
sI5688
S'mobiquity'
p2650
sI5689
S'the hartford'
p2651
sI5692
S'bank america corporation'
p2652
sI5693
S'deluxe corporation'
p2653
sI5694
S'hertz corporation'
p2654
sI5701
S"miami children's health system"
p2655
sI5703
S'l t infotech'
p2656
sI8494
S'n a'
p2657
sI5706
S'the nielsen company llc'
p2658
sI5707
S'mckinsey'
p2659
sI5709
S'mobiquity'
p2660
sI5711
S'the nielsen company llc'
p2661
sI5713
S'mckinsey'
p2662
sI5716
g2613
sI5717
S'acosta sales marketing'
p2663
sI5718
S'incadence strategic solutions'
p2664
sI5719
S'deluxe corporation'
p2665
sI5722
S'kemet'
p2666
sI5723
S'adventist health system corporate office'
p2667
sI5726
S'ge digital'
p2668
sI5728
S'mckinsey'
p2669
sI5732
S'siemens corporation'
p2670
sI5735
S'pragmatics inc'
p2671
sI5736
S'adventist it'
p2672
sI5739
g1612
sI5740
S'mobiquity'
p2673
sI5741
S'adp inc'
p2674
sI5742
S'marketing experiments'
p2675
sI5745
S'pragmatics inc'
p2676
sI5748
S'l t infotech'
p2677
sI5749
S'usm business systems inc'
p2678
sI5754
S'numeric recruiting staffing'
p2679
sI5756
S'incadence strategic solutions'
p2680
sI5757
S'adventist health system'
p2681
sI5759
S'bank america corporation'
p2682
sI5760
S'the nielsen company llc'
p2683
sI5763
S'jacobs engineering'
p2684
sI5766
S'incadence strategic solutions'
p2685
sI5769
S'hertz'
p2686
sI5771
g790
sI5772
S'adp'
p2687
sI5774
S'atria senior living'
p2688
sI5775
g790
sI5778
S'adp inc'
p2689
sI5779
S'genscape'
p2690
sI5781
S'genscape'
p2691
sI5784
g790
sI5786
g790
sI5787
S'genscape'
p2692
sI5788
S'comprehensive health services'
p2693
sI5789
S'adp inc'
p2694
sI5790
S'adp'
p2695
sI5792
S'genscape'
p2696
sI5793
S'adp'
p2697
sI5795
S'adp'
p2698
sI5798
S'genscape'
p2699
sI5799
g790
sI5801
S'city hope'
p2700
sI5802
S'shopzilla.com'
p2701
sI5803
S'quality health strategies'
p2702
sI5805
S'nativo'
p2703
sI5806
S'the boston consulting group'
p2704
sI5807
S'mckinsey'
p2705
sI5809
S'buzzfeed'
p2706
sI5811
S'kpmg'
p2707
sI5815
S'ipsos'
p2708
sI5816
S'adp'
p2709
sI5818
S'adp inc'
p2710
sI5821
S'convertro'
p2711
sI5822
S'acorns'
p2712
sI5824
S'snapchat'
p2713
sI5825
S'iteris'
p2714
sI5826
S'adp'
p2715
sI5827
S'adp'
p2716
sI5828
S'ipsos'
p2717
sI5830
g1901
sI5831
S'whisper'
p2718
sI5832
S'tillster'
p2719
sI5835
S'grindr'
p2720
sI5837
S'adp'
p2721
sI5838
S'tastemade'
p2722
sI5839
S'faraday future'
p2723
sI5841
S'snapchat'
p2724
sI5844
S'adp'
p2725
sI5852
S'mckinsey'
p2726
sI5854
S'ticketmaster'
p2727
sI5858
S'adp'
p2728
sI5860
S'buzzfeed'
p2729
sI5861
S'faraday future'
p2730
sI5864
S'riot games'
p2731
sI5868
S'tronc inc'
p2732
sI5871
S'iteris'
p2733
sI5872
S'adp'
p2734
sI5873
S'adp inc'
p2735
sI5874
S'adp'
p2736
sI5876
S'adp inc'
p2737
sI8379
S'cbre'
p2738
sI5878
S'edmunds'
p2739
sI5879
S'zestfinance'
p2740
sI5882
S'general assembly'
p2741
sI5884
S'riot games'
p2742
sI5886
g970
sI5892
S'buzzfeed'
p2743
sI5895
S'buzzfeed'
p2744
sI5901
S'at t'
p2745
sI5902
S'whisper'
p2746
sI5904
S'ingrooves music group'
p2747
sI5905
S'match relevant'
p2748
sI5906
S'whisper'
p2749
sI5908
S'match relevant'
p2750
sI5909
S'whisper'
p2751
sI5911
S'appriss'
p2752
sI5912
S'cox enterprises'
p2753
sI5914
S'cox automotive'
p2754
sI5916
S'zestfinance'
p2755
sI5918
S'adp'
p2756
sI5919
S'general assembly'
p2757
sI5922
S'acorns'
p2758
sI5923
g1842
sI5926
S'blizzard entertainment inc'
p2759
sI5927
S'edmunds.com'
p2760
sI5929
S'hawaiian airlines inc'
p2761
sI5930
S'ticketmaster'
p2762
sI5931
S'california state university system'
p2763
sI5932
S'bsi financial'
p2764
sI5934
S'faraday future'
p2765
sI5937
S'adp'
p2766
sI5938
S'marketshare'
p2767
sI5939
S'demand media'
p2768
sI5942
S'adp'
p2769
sI5943
S'specific media'
p2770
sI5945
S'lorven technologies inc'
p2771
sI5946
S'adp'
p2772
sI5949
S'tala'
p2773
sI5950
S'paysafe'
p2774
sI5954
S'adp inc'
p2775
sI5956
S'kpmg'
p2776
sI5877
S'zestfinance'
p2777
sI5959
S'the wonderful company llc'
p2778
sI5962
S'adp inc'
p2779
sI8382
S'rocket software'
p2780
sI5972
S'atom tickets'
p2781
sI5973
S'adp inc'
p2782
sI5974
S'buzzfeed'
p2783
sI5976
g1681
sI5981
S'nativo'
p2784
sI5985
S'buzzfeed'
p2785
sI5986
S'uptown treehouse blog'
p2786
sI5988
S'spokeo'
p2787
sI5993
S'buzzfeed'
p2788
sI5994
S'buzzfeed'
p2789
sI5995
S'adp inc'
p2790
sI5996
S'union bank n.a.'
p2791
sI5997
g1842
sI5998
S'faraday future'
p2792
sI6003
S"children's hospital orange county"
p2793
sI6008
S'adp'
p2794
sI6009
S'marketshare'
p2795
sI6011
S'buzzfeed'
p2796
sI6012
S'buzzfeed'
p2797
sI6015
S'riot games'
p2798
sI6020
S'snaplogic'
p2799
sI6021
S'at t inc'
p2800
sI6022
S'gumgum'
p2801
sI6023
S'csu northridge'
p2802
sI6024
S'conversion logic'
p2803
sI6026
S'adp'
p2804
sI6027
S'tillster'
p2805
sI6028
S'marketshare'
p2806
sI6029
S'bsi financial'
p2807
sI6034
S'acorns'
p2808
sI6037
S'zestfinance'
p2809
sI6038
S'beyondsoft group'
p2810
sI6042
S'adp'
p2811
sI6047
S'buzzfeed'
p2812
sI6048
S'match relevant'
p2813
sI6049
g1842
sI6050
S'snaplogic'
p2814
sI6052
S'adp'
p2815
sI6053
S'kpmg'
p2816
sI6054
g1624
sI6055
S'tronc inc'
p2817
sI6056
S'ring'
p2818
sI6057
S'adp'
p2819
sI6058
S'buzzfeed'
p2820
sI6060
S'buzzfeed'
p2821
sI6061
S'buzzfeed'
p2822
sI6063
S'snapchat'
p2823
sI6067
S'spokeo'
p2824
sI6069
S'space exploration technologies'
p2825
sI6070
g1051
sI6071
S'kpmg'
p2826
sI6073
S'specific media'
p2827
sI6075
S'zestfinance'
p2828
sI6076
S'adp'
p2829
sI6077
S'adp inc'
p2830
sI6078
S'riot games'
p2831
sI6080
S'pacific life'
p2832
sI6083
S'factual'
p2833
sI6087
S'experian'
p2834
sI6089
S'blizzard entertainment inc'
p2835
sI6090
S'american savings bank'
p2836
sI6091
S'ucla health'
p2837
sI6094
g1051
sI6095
S'buzzfeed'
p2838
sI6097
S'kpmg'
p2839
sI6098
S'adp inc'
p2840
sI6104
S'n a'
p2841
sI6105
S'mckinsey'
p2842
sI6107
S'buzzfeed'
p2843
sI6108
S'cox auto inc'
p2844
sI6111
g1842
sI6112
S'kpmg'
p2845
sI6115
S'riot games'
p2846
sI6117
S'atrilogy'
p2847
sI6123
S'hulu'
p2848
sI6125
S'servicetitan'
p2849
sI6126
S'newfound recruiting'
p2850
sI6127
S'buzzfeed'
p2851
sI6128
S'adp'
p2852
sI6135
S'city hope'
p2853
sI6136
S'riot games'
p2854
sI6137
S'zestfinance'
p2855
sI6138
S'conversion logic'
p2856
sI6139
g970
sI8318
S'university texas austin'
p2857
sI6145
S'hdr inc'
p2858
sI6147
S'gallup'
p2859
sI6148
S'peter kiewit sons'
p2860
sI6150
S'td ameritrade holding'
p2861
sI6152
S'gallup'
p2862
sI6153
S'booz allen hamilton'
p2863
sI6158
S'leidos'
p2864
sI6159
g500
sI6161
g500
sI6162
S'lorven technologies inc'
p2865
sI6164
S'reinsurance group america'
p2866
sI6165
S'leidos'
p2867
sI6167
g1227
sI6168
S'the nerdery'
p2868
sI6169
g54
sI6170
g500
sI6172
g1227
sI6174
g1230
sI6176
g1230
sI6178
g500
sI6180
S'levi ray shoup inc'
p2869
sI6182
S'the climate corporation'
p2870
sI6183
g500
sI6184
g500
sI6186
g500
sI6187
S'square'
p2871
sI6188
S'booz allen hamilton'
p2872
sI6189
S'booz allen hamilton'
p2873
sI6190
g500
sI6192
S'veterans united'
p2874
sI6193
S'square'
p2875
sI6194
g500
sI6195
g500
sI6196
g1227
sI6197
S'department of agriculture'
p2876
sI6198
S'1904labs'
p2877
sI6199
S'leidos'
p2878
sI6200
S'perficient inc'
p2879
sI6201
S'caci'
p2880
sI6202
S'quadrint inc'
p2881
sI6203
g844
sI6204
g500
sI6205
S'the nerdery'
p2882
sI6207
g1234
sI6208
g500
sI6209
S'mercy health'
p2883
sI6212
S'leidos'
p2884
sI6214
S'nhr global'
p2885
sI6215
g500
sI6218
S's3'
p2886
sI6221
S'n a'
p2887
sI6224
S'leidos'
p2888
sI6225
S'new balance'
p2889
sI6227
S'leidos'
p2890
sI6229
S'weatherbill'
p2891
sI6236
g500
sI6237
S'emd millipore'
p2892
sI6238
S'leidos'
p2893
sI6240
S'celestar'
p2894
sI6241
g1234
sI6242
S'leidos'
p2895
sI6243
S'n a'
p2896
sI6244
g500
sI6245
S'celestar'
p2897
sI6248
g1234
sI6249
g500
sI6251
S'nhr global'
p2898
sI6252
g500
sI6253
S'leidos'
p2899
sI6256
S'the climate corporation'
p2900
sI6257
S'sonoma consulting inc'
p2901
sI6258
g500
sI6259
g1230
sI6260
g1227
sI6261
S'leidos'
p2902
sI6264
g1230
sI6266
S'procter gamble'
p2903
sI6270
S'jpmorgan chase co'
p2904
sI6274
S'progressive'
p2905
sI6276
S'jp morgan'
p2906
sI6280
S'american international group'
p2907
sI6281
S'jp morgan'
p2908
sI6286
S'lubrizol corp'
p2909
sI6288
S'procter gamble'
p2910
sI6291
S'mckinsey'
p2911
sI6294
S'jpmorgan chase co'
p2912
sI6295
g2905
sI6297
S'fifth third bank'
p2913
sI6299
S'fifth third bank'
p2914
sI6300
S'ge digital'
p2915
sI6301
S'amtrust financial services'
p2916
sI6302
S'owens corning'
p2917
sI6307
S'applied information sciences inc'
p2918
sI6309
S'jpmorgan chase co'
p2919
sI6310
S'jpmorgan chase co'
p2920
sI6311
S'ipsos north america'
p2921
sI6312
S'welltower inc'
p2922
sI6313
S'cardinal health'
p2923
sI6314
S'medpace'
p2924
sI6315
S'applied information sciences inc'
p2925
sI6316
S'jpmorgan chase co'
p2926
sI6320
S'alliance data'
p2927
sI6321
S'mercy health'
p2928
sI6323
S'us bank'
p2929
sI6324
S'procter gamble co'
p2930
sI6328
S'procter gamble co'
p2931
sI6329
S'health care reit'
p2932
sI6330
S'jpmorgan chase co'
p2933
sI6331
S'american international group'
p2934
sI6335
S'procter gamble'
p2935
sI6336
S'medical mutual ohio'
p2936
sI6339
S'mckinsey'
p2937
sI6340
g393
sI6347
S'procter gamble'
p2938
sI6352
g393
sI6355
S'huntington'
p2939
sI6357
g2407
sI6360
S'welltower inc'
p2940
sI6361
S'technosoftcorp'
p2941
sI6363
S'parker-hannifin'
p2942
sI6366
S'medpace'
p2943
sI6367
S'jp morgan'
p2944
sI6368
S'jpmorgan chase co'
p2945
sI6375
S'arconic'
p2946
sI6377
g2118
sI6378
g2905
sI6379
S'ge digital'
p2947
sI6381
S'jp morgan'
p2948
sI6384
S'university dayton'
p2949
sI6385
S'ge digital'
p2950
sI6388
S'medical mutual'
p2951
sI6389
S'procter gamble'
p2952
sI6391
S'procter gamble'
p2953
sI6394
S'jp morgan'
p2954
sI6396
S'abercrombie fitch co'
p2955
sI6401
S'procter gamble'
p2956
sI6402
S'jpmorgan chase co'
p2957
sI6403
S'huntington bancshares'
p2958
sI6407
S'healthtap'
p2959
sI6412
S'procter gamble'
p2960
sI6420
S'procter gamble'
p2961
sI6421
S'mckinsey'
p2962
sI6426
S'jpmorgan chase co'
p2963
sI6427
S'procter gamble co'
p2964
sI6428
g2447
sI6434
g2905
sI6435
S'procter gamble'
p2965
sI6440
S'procter gamble co'
p2966
sI6443
S'jpmorgan chase co'
p2967
sI6446
S'isys technologies inc'
p2968
sI6447
S'qualis corporation'
p2969
sI6448
S'native hawaiian veterans'
p2970
sI6449
S'davidson technologies inc'
p2971
sI6450
S'ge digital'
p2972
sI6452
S'world it solutions'
p2973
sI6453
S'the advisory board company'
p2974
sI6454
S'booz allen hamilton'
p2975
sI6455
g1413
sI6456
S'ge digital'
p2976
sI6457
S'saic'
p2977
sI6460
S'qualis corporation'
p2978
sI6463
S'qualis corporation'
p2979
sI6464
S'n a'
p2980
sI6466
S'viasat'
p2981
sI6467
S'american geophysical union'
p2982
sI6470
S'solidyn solutions inc'
p2983
sI6472
S'code llc'
p2984
sI6473
S'homeadvisor'
p2985
sI6475
g301
sI6476
S'kpmg'
p2986
sI6477
g301
sI6478
S'nhr global'
p2987
sI6479
S'denver health'
p2988
sI6480
S'ibotta inc'
p2989
sI6483
g301
sI6484
S'mckinsey'
p2990
sI6485
S'kpmg'
p2991
sI6489
S'digital first media - denver'
p2992
sI6492
g301
sI6493
g301
sI6494
S'kpmg'
p2993
sI6495
g1083
sI6497
S'rtl networks'
p2994
sI6498
S'quadrint inc'
p2995
sI6500
g1599
sI7319
S'caci'
p2996
sI6502
S'return path'
p2997
sI6504
S'kpmg'
p2998
sI6508
S'n a'
p2999
sI6512
S'kaztronix llc'
p3000
sI6515
g301
sI6519
g301
sI6522
S'pearson'
p3001
sI6524
S'homeadvisor'
p3002
sI6527
S'general assembly'
p3003
sI6529
S'kpmg'
p3004
sI6532
S'comprehensive health services'
p3005
sI6534
g301
sI6538
S'pivotal labs'
p3006
sI6539
g301
sI6541
S'native hawaiian veterans'
p3007
sI6543
S'seagate technology llc'
p3008
sI6545
S'ria financial'
p3009
sI6547
S'mckinsey'
p3010
sI6549
S'kpmg'
p3011
sI6550
S'homeadvisor'
p3012
sI6551
g301
sI6555
S'state colorado'
p3013
sI6556
S'genscape'
p3014
sI6557
S'digitalglobe'
p3015
sI6558
S'ibotta inc'
p3016
sI6560
S'world it solutions'
p3017
sI6565
S'genscape'
p3018
sI6566
g301
sI6567
S'chipotle mexican grill'
p3019
sI6568
S'pearson'
p3020
sI6570
g301
sI6574
g301
sI6576
g301
sI6577
S'mckinsey'
p3021
sI6579
S'xentity corporation'
p3022
sI6581
S'n a'
p3023
sI6582
S'homeadvisor'
p3024
sI6584
S'seagate technology llc'
p3025
sI6586
S'ge oil gas'
p3026
sI6589
S'xentity corporation'
p3027
sI6590
S'return path'
p3028
sI6593
S'seagate technology llc'
p3029
sI6594
S'nhr global'
p3030
sI6596
S'pivotal labs'
p3031
sI6597
g301
sI6598
S'varen technologies'
p3032
sI6605
S'seagate technology llc'
p3033
sI6606
S'rtl networks'
p3034
sI6608
S'ge oil gas'
p3035
sI6609
g301
sI6618
S'muse biotechnology inc'
p3036
sI6619
g301
sI6621
S'mckinsey'
p3037
sI6622
S'seagate'
p3038
sI6625
S'merkle inc'
p3039
sI6627
S'arrow electronics'
p3040
sI6628
S'team industrial services inc'
p3041
sI6629
S'saic'
p3042
sI6631
S'ibotta inc'
p3043
sI6634
S'logrhythm'
p3044
sI6635
S'nhr global'
p3045
sI6636
g3040
sI6637
S'nhr global'
p3046
sI6638
S'kpmg'
p3047
sI6639
g301
sI6641
S'xentity corporation'
p3048
sI6642
S'kpmg'
p3049
sI6645
S'seagate'
p3050
sI6650
S'xentity corporation'
p3051
sI6654
g301
sI6656
g1413
sI6659
g301
sI6662
S'recruit professional services'
p3052
sI6663
S'adp'
p3053
sI6665
S'adp'
p3054
sI6667
S'nuance'
p3055
sI6669
S'adp'
p3056
sI6671
S'rivi consulting'
p3057
sI6672
S'adp'
p3058
sI6673
S'adp'
p3059
sI6675
S'adp'
p3060
sI6676
S'software guidance'
p3061
sI6680
S'honeywell'
p3062
sI6681
S'taiho oncology'
p3063
sI6682
S'adp'
p3064
sI6683
g1873
sI6684
g579
sI6686
S'adp'
p3065
sI6687
S'adp'
p3066
sI8406
S'oportun inc'
p3067
sI6689
S'adp'
p3068
sI6690
S'honeywell'
p3069
sI6691
S'jpmorgan chase co'
p3070
sI6693
S'bloomberg'
p3071
sI6694
S'taptap networks'
p3072
sI6695
S'adp'
p3073
sI6696
S'kaztronix llc'
p3074
sI6698
S"l'oreal"
p3075
sI6699
S'chubb'
p3076
sI6700
g393
sI6703
S'adp'
p3077
sI6704
S'nuance'
p3078
sI6705
S'adp'
p3079
sI6706
S'adp'
p3080
sI6707
S'adp'
p3081
sI6708
S'adp'
p3082
sI6712
S'honeywell'
p3083
sI6713
S'comrise technology'
p3084
sI6715
S'amnet services inc'
p3085
sI6716
S'adp'
p3086
sI6718
S'adp'
p3087
sI6719
S'rangtech'
p3088
sI6720
S'adp inc'
p3089
sI6721
S'adp inc'
p3090
sI6722
S'adp'
p3091
sI6723
S'adp'
p3092
sI6724
S'johnson johnson'
p3093
sI6726
S'adp'
p3094
sI6727
S'wyndham worldwide'
p3095
sI6729
S'honeywell'
p3096
sI6730
S'adp'
p3097
sI6732
S'adp'
p3098
sI6733
S'honeywell'
p3099
sI6734
S'honeywell'
p3100
sI6735
S'emnos gmbh'
p3101
sI6737
S'adp'
p3102
sI6738
S'adp inc'
p3103
sI6742
S'adp'
p3104
sI6746
S'bny mellon'
p3105
sI6747
S'cancer genetics'
p3106
sI6748
S'rangtech'
p3107
sI6749
S'sonsoft inc'
p3108
sI6750
S'adp'
p3109
sI6753
S'adp'
p3110
sI6754
S'honeywell'
p3111
sI6755
S'the prudential insurance company america'
p3112
sI6756
S'bartech group'
p3113
sI6757
S'adp'
p3114
sI6758
S'adp'
p3115
sI6759
g85
sI6763
S'adp'
p3116
sI6764
S'prudential'
p3117
sI6765
S'sonsoft inc'
p3118
sI6766
S'adp'
p3119
sI6768
g3076
sI6769
S'adp inc'
p3120
sI6770
S'bartech group'
p3121
sI6771
g393
sI6772
g393
sI6774
S'adp inc'
p3122
sI6776
g393
sI6777
S'honeywell'
p3123
sI6778
S'davincitek'
p3124
sI6779
g393
sI6780
S'jp morgan'
p3125
sI6781
S'pricewaterhouse coopers'
p3126
sI6782
S'adp'
p3127
sI6783
S'otsuka'
p3128
sI6785
S'adp inc'
p3129
sI6787
S'adp'
p3130
sI6788
S'adp inc'
p3131
sI6789
S'bartech group'
p3132
sI6791
S'adp'
p3133
sI6792
S'honeywell'
p3134
sI6793
S'outsource consulting services inc'
p3135
sI6795
S'adp'
p3136
sI6797
S'l t infotech'
p3137
sI6800
S'wyndham vacation resorts'
p3138
sI6801
S'adp'
p3139
sI6802
S'adp'
p3140
sI6804
S'adp'
p3141
sI6806
S'adp'
p3142
sI6807
S'honeywell'
p3143
sI6808
g393
sI6809
S'adp inc'
p3144
sI6810
g393
sI6812
S'adp'
p3145
sI6814
S'nuance'
p3146
sI6815
S'adp'
p3147
sI6816
S'adp'
p3148
sI6817
S'l t infotech'
p3149
sI6818
S'sap'
p3150
sI6819
S'adp inc'
p3151
sI6820
S'adp'
p3152
sI6821
S'outsource consulting services inc'
p3153
sI6822
S'adp inc'
p3154
sI6823
S'adp'
p3155
sI6825
g85
sI6826
S'adp'
p3156
sI6829
S'bracco diagnostics inc'
p3157
sI6830
S'adp'
p3158
sI6831
S'adp'
p3159
sI6835
S'adp'
p3160
sI6836
S'adp inc'
p3161
sI6838
S'adp'
p3162
sI6839
S'adp inc'
p3163
sI6840
S'novartis pharmaceuticals'
p3164
sI6841
S'adp inc'
p3165
sI6842
S'adp'
p3166
sI6843
S'osource'
p3167
sI6845
S'honeywell'
p3168
sI6847
S'emnos gmbh'
p3169
sI6848
g1873
sI6850
S'novartis pharmaceuticals'
p3170
sI6852
S'rangtech'
p3171
sI6854
S'the bank new york mellon'
p3172
sI6856
S'adp'
p3173
sI6857
g819
sI6858
S'adp inc'
p3174
sI6859
S'adp'
p3175
sI6861
S'adp inc'
p3176
sI6862
S'at t'
p3177
sI6863
S'adp'
p3178
sI6864
S'osource'
p3179
sI6865
S'adp'
p3180
sI6868
S'verisk analytics'
p3181
sI6869
g1873
sI5957
S'american savings bank'
p3182
sI6871
S'adp'
p3183
sI6872
S'plymouth rock'
p3184
sI6873
S'dealer track'
p3185
sI6874
S'outsource consulting services inc'
p3186
sI6875
g1873
sI6876
S'adp'
p3187
sI6877
S'c r bard inc'
p3188
sI6878
S'verisk analytics'
p3189
sI6880
S'adp'
p3190
sI6881
S'honeywell'
p3191
sI6884
S'adp'
p3192
sI6886
S'adp inc'
p3193
sI6887
S'plymouth rock'
p3194
sI6888
S'adp inc'
p3195
sI6890
S'adp'
p3196
sI6892
S'adp inc'
p3197
sI6893
S'stevens'
p3198
sI6897
S'cygnus professionals inc'
p3199
sI6898
S'adp inc'
p3200
sI6900
S'adp'
p3201
sI6901
S'honeywell'
p3202
sI6902
S'adp'
p3203
sI6903
S'adp inc'
p3204
sI6905
S'adp inc'
p3205
sI6906
S'jet'
p3206
sI6907
S'adp'
p3207
sI6908
S'siemens corporation'
p3208
sI6910
S'adp inc'
p3209
sI6911
S'honeywell'
p3210
sI6913
g3076
sI6914
S'adp'
p3211
sI6915
S'adp'
p3212
sI6916
S'adp'
p3213
sI6917
S'adp'
p3214
sI6918
S'adp'
p3215
sI6920
g2239
sI6923
S'outsource consulting services inc'
p3216
sI6924
S'adp'
p3217
sI6925
S'plymouth rock'
p3218
sI6926
S'comrise inc'
p3219
sI6927
S'novartis pharmaceuticals'
p3220
sI6928
S'recruit professional services'
p3221
sI6929
S'jp morgan'
p3222
sI6931
S'adp'
p3223
sI6935
S'srp systems inc'
p3224
sI6937
S'adp'
p3225
sI6939
S'the bank new york mellon corporation'
p3226
sI6940
g393
sI6942
S'at t inc'
p3227
sI6943
S'rivi consulting'
p3228
sI6944
S'adp'
p3229
sI6945
S'l t infotech'
p3230
sI6947
S'adp'
p3231
sI6948
S'adp inc'
p3232
sI6949
S"l'oreal"
p3233
sI6950
S'chubb'
p3234
sI6951
S'prudential financial'
p3235
sI6953
S'adp inc'
p3236
sI6954
S'adp'
p3237
sI6957
S'davincitek'
p3238
sI6960
S'adp'
p3239
sI6961
g393
sI6963
S'adp'
p3240
sI6964
S'adp'
p3241
sI6970
S'adp'
p3242
sI2527
S'logistics management institute'
p3243
sI6972
S'adp inc'
p3244
sI6973
S'adp inc'
p3245
sI6975
S'adp'
p3246
sI6976
S'adp inc'
p3247
sI6977
g393
sI6979
S'open systems technologies'
p3248
sI6982
S'adp inc'
p3249
sI6983
S'l t infotech'
p3250
sI6984
g393
sI6986
S'at t'
p3251
sI6987
S'adp'
p3252
sI6988
S'honeywell'
p3253
sI6991
S'adp'
p3254
sI6992
S'adp inc'
p3255
sI6993
S'adp'
p3256
sI6994
S'implify inc'
p3257
sI6995
S'adp inc'
p3258
sI6996
S'adp'
p3259
sI6998
S'comrise technology'
p3260
sI6999
S'prudential'
p3261
sI7000
g393
sI7003
S'adp'
p3262
sI7004
S'adp'
p3263
sI7006
g393
sI7007
g1873
sI7010
S'adp'
p3264
sI7011
S'adp'
p3265
sI7013
S'andiamo'
p3266
sI7014
S'adp inc'
p3267
sI7015
S'adp'
p3268
sI7016
S'adp inc'
p3269
sI7020
S'adp'
p3270
sI7021
g3095
sI7024
S'adp'
p3271
sI7026
S'adp'
p3272
sI7027
S'crestron electronics inc'
p3273
sI7028
S'adp'
p3274
sI7034
S'adp'
p3275
sI7035
S'honeywell'
p3276
sI7036
S'adp'
p3277
sI7037
S'alc'
p3278
sI7038
S'adp'
p3279
sI7039
S'l t infotech'
p3280
sI7040
g393
sI7041
S'otsuka'
p3281
sI7042
S'adp inc'
p3282
sI7043
S'adp inc'
p3283
sI7044
S'emnos gmbh'
p3284
sI7045
S'adp'
p3285
sI7047
S'adp inc'
p3286
sI7048
S'adp inc'
p3287
sI7049
S'adp'
p3288
sI7050
S'siemens'
p3289
sI7051
S'adp'
p3290
sI7052
S'otsuka'
p3291
sI7053
S'amnet services inc'
p3292
sI7055
S'adp'
p3293
sI7056
S'cancer genetics'
p3294
sI7058
S'adp inc'
p3295
sI7061
S'adp'
p3296
sI7064
g1873
sI7065
S'adp'
p3297
sI7066
S'siemens france'
p3298
sI7067
S'wyndham vacation resorts'
p3299
sI7074
S'noblis'
p3300
sI7075
S'johns hopkins applied physics laboratory'
p3301
sI7076
g970
sI7077
S'grant thornton llp'
p3302
sI8471
S'ge oil gas'
p3303
sI7081
S'johns hopkins university'
p3304
sI7082
S'saic'
p3305
sI8285
g727
sI7091
S'laureate education inc'
p3306
sI7092
g652
sI7093
S'wiser company'
p3307
sI7095
S'axiologic solutions'
p3308
sI7096
S'xentity corporation'
p3309
sI7097
S'medexpress'
p3310
sI7098
S'johns hopkins applied physics laboratory'
p3311
sI7101
S'bechtel'
p3312
sI7103
S'caci'
p3313
sI7106
S'capital one'
p3314
sI7107
S'noblis'
p3315
sI8420
S'at t'
p3316
sI7111
S'fgm inc'
p3317
sI7112
S'praxis engineering'
p3318
sI7115
S'logistics management institute'
p3319
sI7116
S'c3 energy'
p3320
sI7117
S'sos international ltd'
p3321
sI7118
S'applied research associates inc'
p3322
sI7119
S'dcs corporation'
p3323
sI7120
S'mckinsey'
p3324
sI7121
g301
sI7123
S'itility'
p3325
sI7124
g1276
sI7127
S'mda information systems llc'
p3326
sI7128
S'norc'
p3327
sI7129
S'leidos'
p3328
sI7131
g663
sI7132
S'capital one'
p3329
sI7133
g54
sI7134
S'seneca resources'
p3330
sI7137
S'the advisory board company'
p3331
sI8421
S'homeaway inc'
p3332
sI7140
S'seneca resources'
p3333
sI7141
g1276
sI7142
g663
sI7144
S'bae systems'
p3334
sI7147
S'leidos'
p3335
sI7148
S'fgm inc'
p3336
sI7149
g54
sI7153
S'rkg'
p3337
sI7158
S'capital one'
p3338
sI7159
S'red gate'
p3339
sI7161
S'sotera defense solutions'
p3340
sI7164
S'capital one'
p3341
sI7166
S'nuna'
p3342
sI7167
S'teksystems inc'
p3343
sI7168
S'fiscal note'
p3344
sI5967
S'snapchat'
p3345
sI7171
g54
sI7173
S'vesta corporation'
p3346
sI7176
S'noblis'
p3347
sI7180
S'celestar'
p3348
sI7183
g831
sI7185
S'mda information systems llc'
p3349
sI7188
S'applied research associates inc'
p3350
sI8150
S'noble energy'
p3351
sI7194
S'general assembly'
p3352
sI7195
S'booz allen hamilton'
p3353
sI7196
S'mckinsey'
p3354
sI7198
S'kpmg'
p3355
sI7200
S'the advisory board company'
p3356
sI7202
g1554
sI7203
S'cardinalhire'
p3357
sI7204
S'clarabridge'
p3358
sI7205
g1307
sI7206
S'nhr global'
p3359
sI7207
S'hassett willis company'
p3360
sI7209
S'booz allen hamilton'
p3361
sI7211
S'comscore inc'
p3362
sI7214
g1031
sI7215
S'eagle ray inc'
p3363
sI7219
S'bluelabs'
p3364
sI7220
S'capital one'
p3365
sI7221
S'capital one'
p3366
sI7224
S'hellowallet'
p3367
sI7226
S'calibre'
p3368
sI7228
S'capital one'
p3369
sI7230
S'airbnb inc'
p3370
sI7232
S'comprehensive health services inc'
p3371
sI7234
g23
sI7235
S'infozen'
p3372
sI7236
g79
sI7237
g53
sI7238
S'department of homeland security'
p3373
sI7239
S'axiologic solutions'
p3374
sI7240
S'noblis'
p3375
sI7244
S'avid technology professionals'
p3376
sI7246
S'leidos'
p3377
sI7247
S'the nielsen company llc'
p3378
sI7250
S'bitvoyant'
p3379
sI7251
S'capital one'
p3380
sI7252
S'the washington post company'
p3381
sI7255
S'ec technology llc'
p3382
sI7264
S'technical management resources inc'
p3383
sI7269
S'audatex'
p3384
sI7273
g970
sI7276
S'techaed'
p3385
sI7278
S'comscore inc'
p3386
sI7280
S'intelligenesis llc'
p3387
sI7281
S'cia'
p3388
sI7282
S'cdk global'
p3389
sI7283
S'booz allen hamilton'
p3390
sI7284
g101
sI7285
S'eagle ray inc'
p3391
sI7286
S'grant thornton'
p3392
sI7287
S'leidos'
p3393
sI7289
S'grant thornton'
p3394
sI7292
S'seneca resources'
p3395
sI7294
S'booz allen hamilton'
p3396
sI7296
S'capital one'
p3397
sI7298
S'berico technologies'
p3398
sI7299
S'booz allen hamilton'
p3399
sI7300
S'capital one'
p3400
sI7301
S'leidos'
p3401
sI7303
S'booz allen hamilton'
p3402
sI7304
S'leidos'
p3403
sI7307
S'nhr global'
p3404
sI8313
S'capital one'
p3405
sI7310
S'lmigovernment consulting'
p3406
sI7312
g1554
sI7313
S'fgm inc'
p3407
sI7314
S'atrilogy'
p3408
sI7315
S'mantech international corp'
p3409
sI7317
S'koch industries inc'
p3410
sI7318
g1307
sI8427
S'improving enterprises'
p3411
sI7320
S'capital one'
p3412
sI7321
S'gdit'
p3413
sI7325
S'civis analytics'
p3414
sI7326
S'logistics management institute'
p3415
sI7327
S'quadrint inc'
p3416
sI7328
S'the cadmus group'
p3417
sI7329
S'fei'
p3418
sI7331
S'optoro'
p3419
sI7332
S'leidos'
p3420
sI7334
S'mda information systems llc'
p3421
sI7336
S'leidos'
p3422
sI7337
g1276
sI7338
S'nuwave solutions'
p3423
sI7340
g970
sI7341
g970
sI7344
S'celestar'
p3424
sI7346
S'leidos'
p3425
sI7348
S'verisk analytics'
p3426
sI8428
S'mckinsey'
p3427
sI7351
g1413
sI7352
S'avid technology professionals'
p3428
sI7355
S'xentity corporation'
p3429
sI7356
S'cdk global'
p3430
sI7357
S'airbnb inc'
p3431
sI7359
g53
sI7362
S'the nielsen company llc'
p3432
sI7365
S'quadrint inc'
p3433
sI7366
S'booz allen hamilton'
p3434
sI7367
S'koch industries inc'
p3435
sI7368
S'capital one'
p3436
sI7370
S'leidos'
p3437
sI7371
S'capital one'
p3438
sI7372
S'booz allen hamilton'
p3439
sI7373
S'caci'
p3440
sI7374
g1307
sI7375
S'caci'
p3441
sI7376
S'technical management resources inc'
p3442
sI8440
S'bank america corporation'
p3443
sI7379
S'vanda pharmaceuticals inc'
p3444
sI7381
S'capital one'
p3445
sI7382
S'umpqua bank'
p3446
sI7386
S'rkg'
p3447
sI7387
S'bechtel'
p3448
sI7391
S'altamira'
p3449
sI7395
S'georgia-pacific'
p3450
sI7400
S'berico technologies'
p3451
sI7402
g54
sI7404
S'johns hopkins university'
p3452
sI7407
S'rkg'
p3453
sI7408
S'onyx government services llc'
p3454
sI8430
S'jp morgan'
p3455
sI7410
S'booz allen hamilton'
p3456
sI7411
S'fiscalnote'
p3457
sI7412
S'axiologic solutions'
p3458
sI7414
S'csra inc'
p3459
sI7417
S'turas group'
p3460
sI7418
S'amazon'
p3461
sI7419
S'the advisory board company'
p3462
sI7421
S'devaran'
p3463
sI7422
S'johns hopkins applied physics laboratory'
p3464
sI7423
S'booz allen hamilton'
p3465
sI7424
g54
sI7430
S'teaching strategies llc'
p3466
sI7431
S'booz allen hamilton'
p3467
sI7432
g1043
sI7433
g1307
sI7434
g1043
sI7435
g1307
sI7436
S'fgm inc'
p3468
sI7437
S'aspiration software inc'
p3469
sI7440
g101
sI7441
S'johns hopkins university'
p3470
sI7442
S'booz allen hamilton'
p3471
sI7443
S'booz allen hamilton'
p3472
sI7447
S'general assembly'
p3473
sI7449
g1043
sI7450
S'capital one'
p3474
sI7452
g1413
sI7454
S'all-in analytics'
p3475
sI7455
S'vesta corporation'
p3476
sI7456
S'csra'
p3477
sI7458
S'marketo'
p3478
sI7459
S'civis analytics'
p3479
sI7460
S'sprinklr'
p3480
sI7464
S'capital one'
p3481
sI7465
S'georgia-pacific'
p3482
sI7467
S'devaran'
p3483
sI7468
S'fgm inc'
p3484
sI7471
S'sotera defense solutions'
p3485
sI7474
g53
sI7475
S'pricewaterhouse coopers'
p3486
sI7476
S'ceb'
p3487
sI7479
S'syntelligent analytic solutions llc'
p3488
sI7480
g54
sI7482
S'leidos'
p3489
sI7483
g1276
sI7484
S'axiologic solutions'
p3490
sI7486
S'concurrent technologies'
p3491
sI7487
S'the washington post'
p3492
sI7489
S'center shared services'
p3493
sI7490
S'cdk global'
p3494
sI7491
S'booz allen hamilton'
p3495
sI7492
S'varen technologies'
p3496
sI7493
S'bae systems'
p3497
sI7494
S'leidos'
p3498
sI7502
S'amazon'
p3499
sI7505
S'cia'
p3500
sI7506
g301
sI7507
S'bae systems'
p3501
sI7508
S'nuwave solutions'
p3502
sI7510
g54
sI7513
S'mckinsey'
p3503
sI7514
g1276
sI7515
S'fiscal note'
p3504
sI7517
g970
sI7519
S'capital one'
p3505
sI7525
S'aerotek'
p3506
sI7526
S'red gate'
p3507
sI3985
g1672
sI8434
S'capital one'
p3508
sI7530
S'bytecubed'
p3509
sI7531
S'koch nitrogen company'
p3510
sI7532
S'capital one'
p3511
sI7533
g663
sI7534
S'koch industries inc'
p3512
sI7537
S'eagle ray inc'
p3513
sI7538
g54
sI7539
g1413
sI7540
S'new america foundation'
p3514
sI7541
S'capital one'
p3515
sI7542
S'alex alternative experts inc'
p3516
sI7543
g663
sI7545
S'johns hopkins university'
p3517
sI7548
S'praxis engineering'
p3518
sI7549
S'sos international ltd'
p3519
sI7550
g54
sI7557
g1307
sI7558
g54
sI8435
g94
sI7561
S'avid technology professionals'
p3520
sI7563
g663
sI7564
S'capital one'
p3521
sI7565
S'booz allen hamilton'
p3522
sI7566
S'nuna'
p3523
sI7567
S'aptima'
p3524
sI7573
S'rkg'
p3525
sI7574
S'allied technology group inc'
p3526
sI7575
S'capital one'
p3527
sI7578
S'leidos'
p3528
sI7579
S'norc'
p3529
sI7580
S'capital one'
p3530
sI7582
S'dairy farmers america inc'
p3531
sI7584
S'eagle ray inc'
p3532
sI7585
S'caci'
p3533
sI7586
S'mckinsey'
p3534
sI7588
S'airbnb inc'
p3535
sI7591
S'altamira'
p3536
sI7592
g53
sI7593
S'seneca resources'
p3537
sI7595
S'eagle ray inc'
p3538
sI7597
g1276
sI7598
S'booz allen hamilton'
p3539
sI7601
S'applied research associates inc'
p3540
sI7605
S'capital one'
p3541
sI7606
S'solera holdings'
p3542
sI7607
g23
sI7609
S'kpmg'
p3543
sI7612
S'capital one'
p3544
sI7614
S'sra international inc'
p3545
sI7615
S'mda information systems llc'
p3546
sI7616
S'grant thornton llp'
p3547
sI7618
g1413
sI7619
S'kpmg'
p3548
sI7620
S'applied research associates inc'
p3549
sI7629
g970
sI7630
S'caci'
p3550
sI7631
S'capital one'
p3551
sI7632
S'fiscal note'
p3552
sI7634
g970
sI7635
S'capital one'
p3553
sI7639
S'all-in analytics'
p3554
sI7640
S'koch nitrogen company'
p3555
sI7644
S'chenega corporation'
p3556
sI7646
S'failproof'
p3557
sI7648
S'marketo inc'
p3558
sI8438
g301
sI7651
S'grant thornton'
p3559
sI7652
S'nuna'
p3560
sI7655
S'sotera defense solutions'
p3561
sI7656
S'marketo'
p3562
sI7657
S'leidos'
p3563
sI7658
S'mda information systems llc'
p3564
sI7662
S'adp'
p3565
sI7666
S'starbucks'
p3566
sI7669
S'booz allen hamilton'
p3567
sI7670
S'vox media'
p3568
sI7671
S'asrc federal holding'
p3569
sI7672
S'capital one'
p3570
sI8398
S'improving enterprises'
p3571
sI7674
S'nhr global'
p3572
sI7675
g663
sI7678
S'johns hopkins applied physics laboratory'
p3573
sI7680
S'kpmg'
p3574
sI7683
S'capital one'
p3575
sI7684
S'praxis engineering'
p3576
sI7686
S'msp metropolitan council'
p3577
sI7687
S'marketo inc'
p3578
sI7690
g54
sI7693
S'privia health'
p3579
sI7695
S'leidos'
p3580
sI7696
S'saic'
p3581
sI7700
S'nuwave solutions'
p3582
sI7701
S'turas group'
p3583
sI7702
S'reqroute inc'
p3584
sI7703
S'lmigovernment consulting'
p3585
sI7706
S'leidos'
p3586
sI7708
S'continuum'
p3587
sI7709
S'onyx government services llc'
p3588
sI7710
S'leidos'
p3589
sI7713
S'department of veterans affairs'
p3590
sI7714
S'capital one'
p3591
sI7716
S'capital one'
p3592
sI7717
g1043
sI7718
S'chenega corporation'
p3593
sI7719
S'lmigovernment consulting'
p3594
sI7720
g332
sI7721
S'johns hopkins university'
p3595
sI7723
S'chenega corporation'
p3596
sI7724
S'fiscal note'
p3597
sI7727
S'the rock creek group'
p3598
sI7728
S'cdk global'
p3599
sI7730
S'sotera defense solutions'
p3600
sI7732
S'csra'
p3601
sI7733
S'calibre'
p3602
sI7734
S'bae systems'
p3603
sI7735
S'sotera defense solutions'
p3604
sI7737
S'johns hopkins applied physics laboratory'
p3605
sI7738
g53
sI7744
S'capital one'
p3606
sI7746
S'mantech international corporation'
p3607
sI7749
S'kpmg'
p3608
sI7750
S'atrilogy'
p3609
sI7752
S'sos international ltd'
p3610
sI7755
S'fiscalnote'
p3611
sI7756
S'ntrepid'
p3612
sI7758
S'airbnb inc'
p3613
sI7761
S'ec technology llc'
p3614
sI7766
S'buzzfeed'
p3615
sI7767
S'fiscal note'
p3616
sI7769
S'leidos'
p3617
sI7770
S'solera holdings'
p3618
sI8235
g575
sI7775
S'leidos'
p3619
sI7776
S'arctic slope regional corporation'
p3620
sI7780
S'nhr global'
p3621
sI7782
S'leidos'
p3622
sI7783
S'fiscalnote'
p3623
sI7792
S'civis analytics'
p3624
sI2664
S'koch industries inc'
p3625
sI7794
S'koch industries inc'
p3626
sI7795
g970
sI7797
S'eagle ray inc'
p3627
sI7798
S'booz allen hamilton'
p3628
sI7799
S'capital one'
p3629
sI7800
g54
sI7803
S'sotera defense solutions'
p3630
sI7805
S'rgs associates inc'
p3631
sI7806
S'kpmg'
p3632
sI7811
S'socrata'
p3633
sI7812
S'cardinalhire'
p3634
sI7816
S'optoro'
p3635
sI7817
S'asurion'
p3636
sI7819
S'rkg'
p3637
sI7821
g54
sI7822
S'capital one'
p3638
sI7823
g54
sI7825
S'octo consulting group'
p3639
sI7826
S'concurrent technologies'
p3640
sI7827
S'compugain solutions'
p3641
sI7830
S'dcs corporation'
p3642
sI7831
S'ec technology llc'
p3643
sI7832
S'booz allen hamilton'
p3644
sI7838
S'praxis engineering'
p3645
sI7839
g54
sI7840
S'nuna'
p3646
sI7842
S'emkayel consulting llc'
p3647
sI7845
S'rgs associates inc'
p3648
sI7846
S'duit'
p3649
sI7847
S'vox media'
p3650
sI7848
g101
sI7849
S'logistics management institute'
p3651
sI7850
S'cdk global'
p3652
sI7855
S'bluelabs'
p3653
sI7856
g54
sI7857
S'booz allen hamilton'
p3654
sI7860
g663
sI7864
g970
sI7868
S'cardinalhire'
p3655
sI7872
S'mda information systems llc'
p3656
sI7873
S'intrexon'
p3657
sI7877
S'capital one'
p3658
sI7878
g23
sI7879
S'privia health'
p3659
sI7882
S'capital one'
p3660
sI7884
S'leidos'
p3661
sI7885
S'kenjya trusant'
p3662
sI7887
S'bae systems'
p3663
sI7890
S'leidos'
p3664
sI7895
S'mckinsey'
p3665
sI7898
S'society neuroscience'
p3666
sI7899
S'kpmg'
p3667
sI7900
S'audatex'
p3668
sI7905
S'lmigovernment consulting'
p3669
sI1627
S'university chicago'
p3670
sI7907
S'capital one'
p3671
sI7911
S'etech'
p3672
sI7912
S'comscore inc'
p3673
sI7913
S'logistics management institute'
p3674
sI7914
S'booz allen hamilton'
p3675
sI7915
g54
sI7917
S'capital one'
p3676
sI7918
S'infosys public services inc'
p3677
sI7919
S'johns hopkins university'
p3678
sI7920
S'neustar inc'
p3679
sI7923
S'saic'
p3680
sI7925
S'mckinsey'
p3681
sI7926
S'metrostar systems'
p3682
sI7927
S'johns hopkins applied physics laboratory'
p3683
sI7929
S'booz allen hamilton'
p3684
sI7938
S'1100 charlotte'
p3685
sI7941
S'corporate main campus'
p3686
sI7949
S'navihealth'
p3687
sI7951
S'pets safe'
p3688
sI7952
S'cdk global'
p3689
sI7954
S'pro2serve professional project services inc'
p3690
sI7958
S'n a'
p3691
sI7960
S'n a'
p3692
sI7962
S'sonsoft inc'
p3693
sI7963
S'corporate main campus'
p3694
sI7964
S'emdeon inc'
p3695
sI7966
S'navihealth'
p3696
sI7967
S'radio systems corporation'
p3697
sI7968
S'wright medical group inc'
p3698
sI7969
S'sonsoft inc'
p3699
sI7970
S'aspire health'
p3700
sI7971
S'sedgwick claims management services inc'
p3701
sI7973
S'n a'
p3702
sI7974
S'n a'
p3703
sI7977
S'n a'
p3704
sI7981
S'scripps networks interactive'
p3705
sI7983
S'n a'
p3706
sI7984
S'eventbrite'
p3707
sI7985
S'corporate main campus'
p3708
sI7988
S'sonsoft inc'
p3709
sI7989
S'cardinalhealth'
p3710
sI7991
S'sonsoft inc'
p3711
sI7992
S'corporate main campus'
p3712
sI7994
S'n a'
p3713
sI7996
S'n a'
p3714
sI7997
S'computer consultants international inc'
p3715
sI7999
S'ge power'
p3716
sI8000
S'intersys'
p3717
sI8001
g2425
sI8002
S'n a'
p3718
sI8003
g393
sI8004
g173
sI8005
S'mckinsey'
p3719
sI8006
S'homeaway inc'
p3720
sI8011
S'ge transportation'
p3721
sI8012
S'kpmg'
p3722
sI8014
S'adp'
p3723
sI8015
S'cb richard ellis'
p3724
sI8016
S'homeaway inc'
p3725
sI8017
S'texas instruments'
p3726
sI8018
S'samsung electronics america inc'
p3727
sI8021
S'at t inc'
p3728
sI8024
S'kpmg'
p3729
sI8027
S'hewlett-packard company'
p3730
sI8029
S'damco solutions'
p3731
sI8030
S'viasat'
p3732
sI8031
S'capital one'
p3733
sI8032
g85
sI8033
S'dyncorp international'
p3734
sI8036
S'invesco'
p3735
sI8037
S'sotera defense solutions'
p3736
sI8038
S"2u's university partners"
p3737
sI8041
S'dell inc'
p3738
sI8045
S'at t inc'
p3739
sI8047
g1104
sI8049
S'capital one'
p3740
sI8053
S'ge oil gas'
p3741
sI8054
S'dachis group'
p3742
sI8055
S'capital one'
p3743
sI8059
g970
sI8062
S'at t'
p3744
sI8063
S'sprinklr'
p3745
sI8065
S'samsung electronics america inc'
p3746
sI8066
S'brillio inc'
p3747
sI8067
S'ge oil gas'
p3748
sI8072
S'capital one'
p3749
sI8076
S'aviall inc'
p3750
sI8077
S'jpmorgan chase co'
p3751
sI8078
S'rocket software'
p3752
sI8079
S"l'oreal"
p3753
sI8081
g173
sI8083
g173
sI8086
S'capital one'
p3754
sI8089
S'lynntech inc'
p3755
sI8091
S'homeaway'
p3756
sI8092
S'enthought'
p3757
sI8093
g173
sI8095
S'at t'
p3758
sI8098
g794
sI8100
g94
sI8101
S'capital one'
p3759
sI8102
S'ge oil gas'
p3760
sI8103
S'n a'
p3761
sI8105
S'n a'
p3762
sI8106
S'the university texas medical branch'
p3763
sI8107
g173
sI8108
S'sotera defense solutions'
p3764
sI8114
S'schlumberger ltd'
p3765
sI8119
S'mckinsey'
p3766
sI8120
S'utmb'
p3767
sI8121
S'at t inc'
p3768
sI8122
S'matchpoint solutions'
p3769
sI8123
S'quality health strategies'
p3770
sI8124
S'joseph michaels international'
p3771
sI8127
S'n a'
p3772
sI8128
S'bartech group'
p3773
sI8130
S'oportun inc'
p3774
sI8131
S'hcsc'
p3775
sI8133
S'ge aviation'
p3776
sI8134
S'adp inc'
p3777
sI8135
S'ccc information services inc'
p3778
sI8136
S'cdk global'
p3779
sI8138
S'mckinsey'
p3780
sI8139
S'acxiom corporation'
p3781
sI8140
g141
sI8142
S'n a'
p3782
sI8144
S'dell inc'
p3783
sI8148
S'capital one'
p3784
sI7079
S'kpmg'
p3785
sI8151
g727
sI8153
S'elite research llc'
p3786
sI8155
S'suddenlink'
p3787
sI8156
S'capital one'
p3788
sI8158
S'n a'
p3789
sI8159
S'n a'
p3790
sI8161
S"l'oreal"
p3791
sI8162
S'n a'
p3792
sI8165
S'sonsoft inc'
p3793
sI8166
g970
sI8172
S'insys group'
p3794
sI8173
S'homeaway'
p3795
sI8174
S'sprinklr'
p3796
sI8175
S'sotera defense solutions'
p3797
sI8178
S'capital one'
p3798
sI8180
S'smith associates'
p3799
sI8181
g575
sI8182
S'sotera defense solutions'
p3800
sI8186
S'invesco'
p3801
sI8188
S'sotera defense solutions'
p3802
sI8190
S'army air force exchange service'
p3803
sI8191
S'at t'
p3804
s.