(lp1
F8.2731788912541933e-05
aF0.0010088621668778203
aF0.00097232257682689123
aF0.0015546256101757585
aF0.00014844333941337035
aF0.0033621417981904446
aF0.00027325980371308234
aF0.0026560162913000025
aF0.0011922842700883404
aF0.0010030645712185001
aF0.00013027066372202806
aF0.0015396091956021314
aF0.00011156161437526516
aF0.00026722031387072171
aF3.122423983446648e-05
aF0.0015259190233243437
aF0.0024180531427999284
aF0.0010182343589132462
aF0.002081308113472664
aF0.0024973163026842972
aF0.0017300782461709646
aF0.00012277485262330139
aF0.00027215756229867255
aF0.0006134635282318739
aF0.00057218279074371309
aF0.0020055751349423202
aF2.2204284581847704e-05
aF0.00013417897131567539
aF0.0004115640533690794
aF0.0032329441427929578
aF3.0900504661736011e-05
aF0.00067322954921477599
aF0.00015809318527528718
aF0.00096446197721347996
aF0.0016969886670595321
aF0.00029866395008049638
aF0.00073583851231193262
aF0.00068673181799378002
aF0.00049219662346251325
aF0.0021124738677168148
aF0.00046897838408497964
aF0.0012933904208845125
aF0.0003167862926707192
aF0.0013675509277072586
aF0.00038047849143844285
aF0.00046892275396474939
aF0.0010752692300405359
aF0.00083702819349567312
aF0.00071356637439447842
aF0.00056821924736256393
aF0.0010869123380651685
aF0.0025328574263173195
aF0.0016334176246326788
aF0.0016513972368943121
aF0.00063839465160619069
aF0.0037758104135452416
aF0.00090514225136283891
aF0.0044687857980086265
aF0.00057854193609925206
aF0.0022946625243399567
aF0.00035393019736810306
aF0.00051955118018943709
aF0.0010328798909967293
aF0.00062689786987329054
aF0.0012605246429941322
aF0.001870281850804427
aF0.0010981345214076555
aF0.00061255487548286
aF0.00057378860169019917
aF0.00026532095212624264
aF0.0016301861757503421
aF0.00033152019361860593
aF0.00043743810923888813
aF0.0017408045892955432
aF0.0013933043095680946
aF0.00064643934423790734
aF0.00053887559697636479
aF0.00069893195857112468
aF0.00061982982832276771
aF0.00095913873327160587
aF0.00015988032426425607
aF0.0004176487722003544
aF0.00029722314477335704
aF0.00077521196041370206
aF0.00085048699544242609
aF0.0024888043175989335
aF0.001052880131777228
aF0.00046497530342831292
aF0.00031807683249320288
aF0.00048531501864140688
aF0.0015294154067595034
aF0.000499714681303997
aF0.00040448241681971368
aF0.00084248921939262221
aF0.0023583356713182979
aF0.001219306797896608
aF0.00058762921276130835
aF0.0019914998659509068
aF0.00026095540519195242
aF0.0004848264248292222
aF0.0010216896182417431
aF0.00045048312048162972
aF0.00099555646934602893
aF0.00039436394962594706
aF0.0012086599487993821
aF0.000704941054590121
aF0.00061667106839599975
aF0.0010750017729019704
aF0.0015355555732170919
aF0.00072507215357254867
aF0.0005996806853560253
aF0.00053765210525713049
aF0.0029943488063114065
aF0.00045657599478981462
aF0.00093159857772491463
aF0.00045776797710832425
aF0.00069123693226267116
aF0.00089194817066913295
aF0.00027054781496951429
aF0.0018337952086927151
aF0.0049094713345385708
aF0.00037189016157697738
aF0.00044441352622826154
aF0.0008471291577134139
aF0.0010368637856446805
aF0.00036741478871849339
aF0.00050953623796388514
aF0.0035641416891771917
aF0.0028562481389485628
aF0.0013666586234649719
aF0.00047803717448808403
aF0.0008605239491133763
aF5.4267265005831719e-05
aF5.1687835555123966e-05
aF8.9186136634980856e-06
aF3.0793461618860536e-05
aF2.8029525496165902e-06
aF0.0033538273108691106
aF0.00015245103719346511
aF2.9699025088716503e-05
aF0.00022582016505959176
aF0.00015855678433261859
aF6.9976254492218242e-05
aF4.7184617396019889e-05
aF0.0013675509277072586
aF0.0026718265953426189
aF0.0015844260839396696
aF0.00088035950152998512
aF0.00013379727027838811
aF3.0238103506338758e-05
aF4.3811048530017283e-05
aF0.0030324054659112078
aF3.9359367076517912e-05
aF5.7710008033559937e-05
aF7.3708243792102059e-05
aF4.1905599617824888e-05
aF2.0676467309571691e-05
aF9.8173119093748437e-05
aF1.0169714943487069e-05
aF0.00027375622054621741
aF0.0044687857980086265
aF2.2179720262242598e-05
aF0.0015962647067723683
aF0.0010150315535367633
aF3.4908297181313004e-05
aF4.2208566147975112e-05
aF4.937478819703116e-05
aF0.0013724636439769637
aF8.0918663090774238e-05
aF0.00034710894735054312
aF1.4716438317047886e-05
aF5.9784494254480434e-06
aF0.00078071358585539777
aF0.00055366431390513067
aF0.00017591536574906909
aF0.00015231887722107136
aF0.0016301861757503421
aF0.0019741257204765159
aF1.8074799398782894e-05
aF0.00064188623914502576
aF8.4050062462612499e-05
aF0.00097327812790467324
aF0.00010041664031863741
aF0.00024979482084730827
aF3.8438194776792534e-05
aF0.00045657599478981462
aF8.7742366173883371e-05
aF0.0021501980312769904
aF0.00010510402576467109
aF7.5215253742900583e-05
aF0.00077521196041370206
aF4.3203068479073743e-05
aF9.107726264535289e-05
aF0.0002856427233513137
aF0.00039587911508070242
aF3.9241351380843394e-05
aF0.00042870899004578085
aF0.0015294154067595034
aF0.00051193130060843547
aF0.00074622596762970888
aF0.00032241956768452434
aF0.00018070370948454457
aF0.00091196730713855208
aF5.037840049177551e-06
aF0.00022776807608028505
aF0.0010744565654863601
aF5.2475141795227152e-05
aF0.00035674509108547076
aF0.001097675416436932
aF0.00015444357861239027
aF0.00063819724401530944
aF0.0019389087312809031
aF0.00013223592257582633
aF0.0003653646176239063
aF0.00033348053539184884
aF2.4475632971681046e-05
aF0.0010216896182417431
aF3.2035179633936314e-05
aF0.0012086599487993821
aF0.00015879714677007568
aF2.3356987784180719e-05
aF0.00047476694119952891
aF3.6494593237197105e-05
aF0.00048626244749266939
aF0.0017408045892955432
aF0.0041722930137186223
aF9.1235882854221942e-05
aF2.2512336357306188e-05
aF1.803418900941874e-05
aF3.0793461618860536e-05
aF0.0049094713345385708
aF0.0057490909010448812
aF0.00086983436981410739
aF0.0005043284292734452
aF0.00050552484257272853
aF0.00056235504095177729
aF0.00021780652090038562
aF5.2123050322379892e-05
aF7.1364294101907287e-05
aF0.00028506446628860025
aF0.0010692178855126674
aF0.0013666586234649719
aF0.0040615305193410648
aF0.00014029177584589519
aF0.00019268520375730368
aF0.0001208142228941901
a.