(dp1
S'bauman moscow state technical university'
p2
I305
sS'brown university'
p3
I48
sS'rhodes university'
p4
I573
sS'deakin university'
p5
I354
sS'university nottingham'
p6
I74
sS'universiti teknologi petronas'
p7
I636
sS'vytautas magnus university'
p8
I912
sS'trinity college dublin'
p9
I99
sS'universitia de montriaal'
p10
I125
sS'universidad del valle'
p11
I816
sS'indian institute technology kanpur'
p12
I302
sS'universidad autionoma del estado de miaxico'
p13
I800
sS'universitiat leipzig'
p14
I535
sS'university twente'
p15
I179
sS'tokyo medical dental university'
p16
I328
sS'universiti degli studi di roma - tor vergata'
p17
I489
sS'university delhi'
p18
I541
sS'abu dhabi university'
p19
I703
sS'pontificia universidad catiolica del peri'
p20
I485
sS'indian institute science bangalore'
p21
I151
sS'shinshu university'
p22
I791
sS'virginia commonwealth university'
p23
I701
sS'universitiu di bologna'
p24
I207
sS'iacole des ponts paristech'
p25
I267
sS'universidad simion bolivar venezuela'
p26
I831
sS'kuwait university'
p27
I755
sS'universitiat stuttgart'
p28
I262
sS'tianjin university'
p29
I486
sS'universitas muhammadiyah surakarta'
p30
I855
sS'university tehran'
p31
I597
sS'technische universitiat dortmund'
p32
I578
sS'miami university'
p33
I763
sS'duke university'
p34
I23
sS'ateneo de manila university'
p35
I503
sS'united arab emirates university'
p36
I417
sS'university liverpool'
p37
I156
sS'abo akademi university'
p38
I501
sS'australian catholic university'
p39
I714
sS'kit karlsruher institut fiir technologie'
p40
I97
sS'university santo tomas'
p41
I900
sS'colorado state university'
p42
I386
sS'universitiu degli studi di trieste'
p43
I852
sS'ben gurion university negev'
p44
I319
sS'university melbourne'
p45
I41
sS'university western australia'
p46
I102
sS'university tokyo'
p47
I33
sS'university oulu'
p48
I421
sS'university southampton'
p49
I86
sS'universitia paris-sud 11'
p50
I241
sS'leibniz universitiat hannover'
p51
I399
sS'university colombo'
p52
I879
sS'purdue university'
p53
I91
sS'national university sciences technology'
p54
I519
sS'university manchester'
p55
I28
sS'yeungnam university'
p56
I702
sS'kazakh national technical university k.i.satpayev'
p57
I412
sS'beijing institute technology'
p58
I388
sS'nagoya university'
p59
I114
sS'kanazawa university'
p60
I564
sS'university alabama'
p61
I637
sS'universiti sains malaysia'
p62
I330
sS'university belgrade'
p63
I873
sS'princeton university'
p64
I10
sS'university gothenburg'
p65
I266
sS'university brawijaya'
p66
I874
sS'universitiu degli studi roma tre'
p67
I853
sS'louisiana state university'
p68
I666
sS'universidad autionoma de madrid'
p69
I210
sS'universidad carlos iii de madrid'
p70
I280
sS'georgetown university'
p71
I213
sS'katholieke universiteit leuven'
p72
I78
sS'universidade federal pernambuco'
p73
I844
sS'national taiwan normal university'
p74
I309
sS'american university beirut'
p75
I227
sS'new school university'
p76
I615
sS'university greenwich'
p77
I884
sS'moscow institute physics technology state university'
p78
I349
sS'eotvos lorand university'
p79
I606
sS'southeast university'
p80
I525
sS'universitia de caen basse-normandie'
p81
I857
sS'instituto politiacnico nacional'
p82
I743
sS'istanbul technical university'
p83
I659
sS'syracuse university'
p84
I577
sS'lappeenranta university technology'
p85
I355
sS'rutgers - state university new jersey new brunswick'
p86
I300
sS'university british columbia'
p87
I44
sS'soas - school oriental african studies university london'
p88
I253
sS'university philippines'
p89
I375
sS'ecole normale supiarieure paris'
p90
I32
sS'auckland university technology'
p91
I442
sS'university debrecen'
p92
I689
sS'technische universitiat braunschweig'
p93
I476
sS'nagasaki university'
p94
I517
sS'national kapodistrian university athens'
p95
I669
sS'universidade federal rio grande sul'
p96
I466
sS'kaist - korea advanced institute science technology'
p97
I45
sS'baylor university'
p98
I718
sS'universitia paul sabatier toulouse iii'
p99
I467
sS'universidad de belgrano'
p100
I351
sS'technische universitiat berlin'
p101
I164
sS'verona university'
p102
I909
sS'universitia saint-joseph de beyrouth'
p103
I497
sS'universitiat bayreuth'
p104
I533
sS'ohio university'
p105
I774
sS'pontificia universidad catiolica argentina santa maria de los buenos aires'
p106
I310
sS'kyungpook national university'
p107
I663
sS'tokyo university science'
p108
I797
sS'universiti putra malaysia'
p109
I269
sS'universitiu degli studi di torino'
p110
I584
sS'bond university'
p111
I463
sS'universitia paris-sorbonne'
p112
I220
sS'yokohama national university'
p113
I915
sS'monash university'
p114
I64
sS'university illinois chicago'
p115
I187
sS'national taipei university technology'
p116
I569
sS'virginia polytechnic institute'
p117
I361
sS'amirkabir university technology'
p118
I502
sS'university kwazulu-natal'
p119
I692
sS'national research saratov state university'
p120
I568
sS'university maribor'
p121
I890
sS'newcastle university'
p122
I167
sS'brunel university'
p123
I344
sS'universidad de alcali'
p124
I621
sS'tilburg university'
p125
I329
sS'university ulster'
p126
I646
sS'university otago'
p127
I168
sS'universitiu degli studi di catania'
p128
I847
sS'universiti malaya'
p129
I133
sS'mahidol university'
p130
I284
sS'universidad austral de chile'
p131
I798
sS'technical university denmark'
p132
I108
sS'university oslo'
p133
I113
sS'wake forest university'
p134
I409
sS'universidad de buenos aires'
p135
I84
sS'university ljubljana'
p136
I641
sS'e.a.buketov karaganda state university'
p137
I735
sS'queensland university technology'
p138
I275
sS'universitia lumiiore lyon 2'
p139
I864
sS'university california berkeley'
p140
I27
sS'ruhr-universitiat bochum'
p141
I455
sS'universidad de guadalajara'
p142
I803
sS'university arkansas'
p143
I870
sS'university bucharest'
p144
I876
sS'yale university'
p145
I14
sS'vanderbilt university'
p146
I204
sS'universitiat regensburg'
p147
I536
sS'loyola university chicago'
p148
I759
sS'institut national des sciences appliquiaes de lyon'
p149
I425
sS'hebrew university jerusalem'
p150
I147
sS'fordham university'
p151
I737
sS'universitia nice sophia-antipolis'
p152
I634
sS'instituto tecnoliogico de buenos aires'
p153
I508
sS'sumy state university'
p154
I794
sS'universitiu degli studi di trento'
p155
I449
sS'university jyviaskylia'
p156
I338
sS'saitama university'
p157
I786
sS'palacki university olomouc'
p158
I672
sS'university sharjah'
p159
I697
sS"queen's university"
p160
I222
sS'tomsk state university'
p161
I376
sS'khazar university'
p162
I750
sS'university california santa barbara'
p163
I117
sS'universitia de strasbourg'
p164
I259
sS'university south carolina columbia'
p165
I596
sS'university new hampshire'
p166
I643
sS'universidad tecnoliogica nacional'
p167
I833
sS'al azhar university'
p168
I706
sS'university exeter'
p169
I165
sS'corvinus university budapest'
p170
I728
sS'universidade de santiago de compostela'
p171
I581
sS'national cheng kung university'
p172
I240
sS'stellenbosch university'
p173
I396
sS'konkuk university'
p174
I754
sS'fu jen catholic university'
p175
I738
sS'american university cairo'
p176
I364
sS'george washington university'
p177
I362
sS'maynooth university'
p178
I667
sS'university antwerp'
p179
I208
sS'universidade federal da bahia'
p180
I838
sS'kumamoto university'
p181
I566
sS'karl-franzens-universitiat graz'
p182
I465
sS'hacettepe university'
p183
I742
sS'universidad de los andes miarida'
p184
I807
sS'national tsing hua university'
p185
I150
sS'universitia paris diderot - paris 7'
p186
I261
sS'university san francisco'
p187
I899
sS'universidad peruana cayetano heredia'
p188
I829
sS'qatar university'
p189
I392
sS'justus-liebig-universitiat gieiuen'
p190
I661
sS'new jersey institute technology'
p191
I766
sS'indian institute technology roorkee'
p192
I398
sS'university cincinnati'
p193
I588
sS'university central florida'
p194
I877
sS'drexel university'
p195
I507
sS'lahore university management sciences'
p196
I756
sS'south china university technology'
p197
I575
sS'jordan university science technology'
p198
I660
sS'washington university st louis'
p199
I106
sS'oklahoma state university'
p200
I775
sS'taipei medical university'
p201
I407
sS'kingston university london'
p202
I512
sS'aston university'
p203
I357
sS'universitia charles-de-gaulle lille 3'
p204
I856
sS'rmit university'
p205
I252
sS'vilnius gediminas technical university'
p206
I910
sS'illinois institute technology'
p207
I403
sS'university dundee'
p208
I243
sS'inha university'
p209
I561
sS'george mason university'
p210
I657
sS'university kentucky'
p211
I543
sS'tallinn university technology'
p212
I618
sS'university st andrews'
p213
I76
sS'tampere university technology'
p214
I318
sS'v.n. karazin kharkiv national university'
p215
I382
sS'university new england'
p216
I894
sS'paris lodron universitiat salzburg'
p217
I777
sS'australian national university'
p218
I21
sS'hufs uo hankuk'
p219
I432
sS'national technical university ukraine kyiv polytechnic institute'
p220
I570
sS'norwegian university science technology'
p221
I258
sS'stevens institute technology'
p222
I675
sS'university witwatersrand'
p223
I359
sS'national sun yat-sen university'
p224
I394
sS'universidad torcuato di tella'
p225
I627
sS'al-farabi kazakh national university'
p226
I235
sS'gifu university'
p227
I658
sS'universitiat hamburg'
p228
I231
sS'florida state university'
p229
I431
sS'leiden university'
p230
I101
sS'university pune'
p231
I896
sS'loughborough university'
p232
I236
sS'universitiat innsbruck'
p233
I299
sS'emory university'
p234
I148
sS'rheinische friedrich-wilhelms-universitiat bonn'
p235
I230
sS'washington state university'
p236
I397
sS'university stirling'
p237
I384
sS'bangor university'
p238
I410
sS'umeie university'
p239
I293
sS'kazakh-british technical university'
p240
I662
sS'osaka prefecture university'
p241
I671
sS'university copenhagen'
p242
I69
sS'university windsor'
p243
I698
sS'bogor agricultural university'
p244
I723
sS'universidad adolfo ibiioez'
p245
I677
sS'national taiwan university science technology'
p246
I242
sS'universitiat jena'
p247
I363
sS'university cape town'
p248
I192
sS'university missouri columbia'
p249
I592
sS'de la salle university'
p250
I731
sS'universidad de castilla-la mancha'
p251
I802
sS'baku state university'
p252
I716
sS'university limerick'
p253
I544
sS'university technology sydney'
p254
I193
sS'sofia university st kliment ohridski'
p255
I674
sS'pontificia universidad javeriana'
p256
I434
sS'university oklahoma'
p257
I469
sS'victoria university'
p258
I700
sS'university salford'
p259
I897
sS'peking university'
p260
I38
sS'university liege'
p261
I316
sS'indian institute technology bombay'
p262
I218
sS'warsaw university technology'
p263
I648
sS'huazhong university science technology'
p264
I445
sS'universidad diego portales'
p265
I817
sS'tomsk polytechnic university'
p266
I400
sS'national research nuclear university mephi'
p267
I406
sS'bar-ilan university'
p268
I602
sS'universidade federal de siao paulo'
p269
I531
sS'university queensland'
p270
I50
sS'dublin institute technology'
p271
I656
sS'universitia libre de bruxelles'
p272
I216
sS'chonbuk national university'
p273
I504
sS'university seoul'
p274
I645
sS'curtin university'
p275
I306
sS'universidad externado de colombia'
p276
I408
sS'university virginia'
p277
I171
sS'aalto university'
p278
I132
sS'central queensland university'
p279
I603
sS'kagoshima university'
p280
I563
sS'shanghai university'
p281
I456
sS'universidad de valparaiso'
p282
I813
sS'university hong kong'
p283
I26
sS'universidade federal rio de janeiro'
p284
I320
sS'macquarie university'
p285
I246
sS'vrije universiteit amsterdam'
p286
I198
sS'university pretoria'
p287
I594
sS'qafqaz university'
p288
I782
sS'universidad del rosario'
p289
I815
sS'university illinois urbana-champaign'
p290
I65
sS'university toronto'
p291
I31
sS'universitia lille 2 droit et santia'
p292
I863
sS'cairo university'
p293
I551
sS'hong kong university science technology'
p294
I35
sS'tecnoliogico de monterrey'
p295
I205
sS'aoyama gakuin university'
p296
I711
sS'university amsterdam'
p297
I56
sS'sun yat-sen university'
p298
I297
sS'rensselaer polytechnic institute'
p299
I311
sS'university central lancashire'
p300
I878
sS'universidade federal de santa maria'
p301
I840
sS'universitiu degli studi di padova'
p302
I337
sS'novosibirsk state university'
p303
I291
sS'university bari'
p304
I872
sS'university tartu'
p305
I348
sS'beijing jiaotong university'
p306
I719
sS'cukurova university'
p307
I729
sS'charles sturt university'
p308
I725
sS'western university'
p309
I197
sS'lehigh university'
p310
I484
sS'chinese university hong kong'
p311
I43
sS'national technical university athens'
p312
I395
sS'okayama university'
p313
I520
sS'osaka university'
p314
I62
sS'national university ireland galway'
p315
I249
sS'universidad panamericana'
p316
I828
sS'lanzhou university'
p317
I567
sS'birkbeck college university london'
p318
I279
sS'universidade da coruioa'
p319
I835
sS'jagiellonian university'
p320
I433
sS'universitia de poitiers'
p321
I861
sS'yeshiva university'
p322
I333
sS'university notre dame'
p323
I203
sS'chonnam national university'
p324
I604
sS'memorial university newfoundland'
p325
I668
sS'university utah'
p326
I422
sS'voronezh state university'
p327
I911
sS'university huddersfield'
p328
I886
sS'university geneva'
p329
I95
sS'university south florida'
p330
I499
sS'university ghana'
p331
I883
sS'doshisha university'
p332
I734
sS'hokkaido university'
p333
I129
sS'university st gallen'
p334
I289
sS'university oxford'
p335
I5
sS'universitia pierre et marie curie'
p336
I140
sS'alexandria university'
p337
I707
sS'indian institute technology guwahati'
p338
I483
sS'michigan technological university'
p339
I514
sS'nankai university'
p340
I314
sS'new york university'
p341
I46
sS'universidad nacional de rosario'
p342
I824
sS'vrije universiteit brussel'
p343
I181
sS'lobachevsky state university nizhni novgorod'
p344
I757
sS'edith cowan university'
p345
I736
sS'pohang university science technology'
p346
I82
sS'lomonosov moscow state university'
p347
I107
sS'sabanci university'
p348
I446
sS'universidad nacional de cuyo'
p349
I822
sS'american university'
p350
I383
sS'london metropolitan university'
p351
I665
sS'universidad de santiago de chile'
p352
I479
sS'universitia paris dauphine'
p353
I356
sS'cardiff university'
p354
I139
sS'charles university'
p355
I301
sS'universitia de sherbrooke'
p356
I633
sS'czech technical university prague'
p357
I506
sS'university aberdeen'
p358
I141
sS'university warsaw'
p359
I367
sS'la trobe university'
p360
I387
sS'kobe university'
p361
I368
sS'university colorado boulder'
p362
I169
sS'american university dubai'
p363
I550
sS'university houston'
p364
I639
sS'university canterbury'
p365
I214
sS'city university london'
p366
I313
sS'delft university technology'
p367
I61
sS'university manitoba'
p368
I546
sS'university east anglia'
p369
I254
sS'university glasgow'
p370
I63
sS'universitia jean moulin lyon 3'
p371
I862
sS'university szeged'
p372
I548
sS'universidad metropolitana'
p373
I820
sS'ritsumeikan university'
p374
I784
sS'quaid-i-azam university'
p375
I783
sS'university patras'
p376
I695
sS'columbia university'
p377
I19
sS'ajou university'
p378
I601
sS'university lahore'
p379
I889
sS'eberhard karls universitiat tiibingen'
p380
I166
sS'university hertfordshire'
p381
I885
sS'michigan state university'
p382
I159
sS'university ghent'
p383
I130
sS'university crete'
p384
I688
sS'universitiu cattolica del sacro cuore'
p385
I496
sS'university sheffield'
p386
I83
sS'radboud university nijmegen'
p387
I190
sS'universidad de montevideo'
p388
I624
sS'universitiat diisseldorf'
p389
I631
sS'city university new york'
p390
I505
sS'universidad de sevilla'
p391
I625
sS'thammasat university'
p392
I619
sS'university calcutta'
p393
I687
sS'northwestern university'
p394
I25
sS'athens university economics business'
p395
I712
sS'university brescia'
p396
I875
sS'university california riverside'
p397
I270
sS'university california davis'
p398
I85
sS'university pics'
p399
I895
sS'sungkyunkwan university'
p400
I105
sS'instituto tecnoliogico autonomo de miaxico'
p401
I608
sS'manchester metropolitan university'
p402
I761
sS'university ottawa'
p403
I292
sS'universidad de la sabana'
p404
I680
sS'bilkent university'
p405
I411
sS'bogaziiai iiniversitesi'
p406
I472
sS'universitia de montpellier'
p407
I327
sS'pontificia universidad catiolica de chile'
p408
I146
sS'simon fraser university'
p409
I225
sS'universidad de concepciion'
p410
I623
sS'universitiat bremen'
p411
I450
sS'stanford university'
p412
I1
sS'king saud university'
p413
I226
sS'universidad nacional de la plata'
p414
I580
sS'chungnam national university'
p415
I726
sS'oxford brookes university'
p416
I358
sS'erasmus university rotterdam'
p417
I143
sS'dalhousie university'
p418
I282
sS'pontificia universidade catiolica rio grande sul'
p419
I780
sS'griffith university'
p420
I335
sS'university pacific'
p421
I902
sS'beijing university technology'
p422
I651
sS'universitat autionoma de barcelona'
p423
I202
sS'university warwick'
p424
I51
sS'university ulsan'
p425
I598
sS'universitia de nantes'
p426
I860
sS'sapienza - universitiu di roma'
p427
I223
sS'universitiat ulm'
p428
I347
sS'dartmouth college'
p429
I157
sS'xiamen university'
p430
I460
sS'university delaware'
p431
I420
sS'university turku'
p432
I233
sS'university southern queensland'
p433
I901
sS'universitiat duisburg-essen'
p434
I630
sS'heriot-watt university'
p435
I326
sS'university leeds'
p436
I92
sS'universidad nacional de tucumin'
p437
I825
sS'universitia paul-valiary montpellier 3'
p438
I866
sS'universidad de puerto rico'
p439
I810
sS'wayne state university'
p440
I471
sS'university vermont'
p441
I599
sS'universidad rey juan carlos'
p442
I830
sS'alpen-adria-universitiat klagenfurt'
p443
I709
sS'lund university'
p444
I72
sS'university california santa cruz'
p445
I295
sS'laval university'
p446
I371
sS'clarkson university'
p447
I605
sS'aristotle university thessaloniki'
p448
I492
sS'university bradford'
p449
I586
sS'rutgers - state university new jersey newark'
p450
I673
sS'universitia claude bernard lyon 1'
p451
I537
sS'university montana missoula'
p452
I891
sS'nicolaus copernicus university'
p453
I767
sS'kth royal institute technology'
p454
I96
sS'pennsylvania state university'
p455
I94
sS'nottingham trent university'
p456
I771
sS'universitia panthiaon-assas'
p457
I635
sS'coventry university'
p458
I655
sS'tel aviv university'
p459
I211
sS'dublin city university'
p460
I379
sS'king faisal university'
p461
I752
sS'ohio state university'
p462
I87
sS'belarus state university'
p463
I353
sS'university engineering & technology'
p464
I882
sS'technion - israel institute technology'
p465
I212
sS'international islamic university malaysia'
p466
I609
sS'benemiarita universidad autionoma de puebla'
p467
I721
sS'university birmingham'
p468
I81
sS'universidade federal parani'
p469
I843
sS'university tennessee'
p470
I470
sS'universitiu degli studi di napoli federico ii'
p471
I488
sS'university western cape'
p472
I903
sS'universidade de siao paulo'
p473
I119
sS'universitia paris 1 panthiaon-sorbonne'
p474
I228
sS'swinburne university technology'
p475
I447
sS'university wroclaw'
p476
I905
sS'worcester polytechnic institute'
p477
I649
sS'universidade estadual de campinas'
p478
I191
sS"queen's university belfast"
p479
I194
sS'brigham young university'
p480
I652
sS'shandong university'
p481
I524
sS'ryerson university'
p482
I785
sS'tongji university'
p483
I315
sS'universitiat rostock'
p484
I685
sS'kansas state university'
p485
I745
sS'universidad nacional de ciordoba'
p486
I626
sS'lodz university'
p487
I758
sS'universidad del norte'
p488
I814
sS'universidade de brasilia'
p489
I628
sS'shahid beheshti university tehran'
p490
I790
sS'national research university higher school economics'
p491
I414
sS'martin-luther-universitiat halle-wittenberg'
p492
I513
sS'university kent'
p493
I366
sS'universiti teknologi mara'
p494
I868
sS'university tasmania'
p495
I370
sS'universitia toulouse 1 capitole'
p496
I867
sS'universitiat kiln'
p497
I346
sS'university texas dallas'
p498
I380
sS'university zagreb'
p499
I699
sS'dankook university'
p500
I730
sS'universitat de barcelona'
p501
I161
sS'johannes kepler universitiat linz'
p502
I562
sS'al-imam mohamed ibn saud islamic university'
p503
I650
sS'university latvia'
p504
I693
sS'hitotsubashi university'
p505
I482
sS'case western reserve university'
p506
I201
sS'universidad nacional autionoma de miaxico'
p507
I127
sS'peter great st.petersburg polytechnic university'
p508
I415
sS'university massachusetts amherst'
p509
I250
sS'flinders university'
p510
I559
sS'carnegie mellon university'
p511
I57
sS'sejong university'
p512
I523
sS'universidad catiolica andrias bello - ucab'
p513
I620
sS'ludwig-maximilians-universitiat miinchen'
p514
I67
sS'universitia du quiabec'
p515
I539
sS'hanyang university'
p516
I170
sS'nanjing university'
p517
I115
sS'plekhanov russian university economics'
p518
I778
sS'makerere university'
p519
I760
sS'utah state university'
p520
I908
sS'iowa state university'
p521
I426
sS'universidad tiacnica federico santa maria'
p522
I832
sS'beijing normal university'
p523
I256
sS'novosibirsk state technical university'
p524
I772
sS'university zurich'
p525
I79
sS'universitia de bordeaux'
p526
I538
sS'budapest university technology economics'
p527
I724
sS'texas a&m university'
p528
I160
sS'university essex'
p529
I331
sS'durham university'
p530
I73
sS'indian institute technology delhi'
p531
I184
sS'technische universitiat darmstadt'
p532
I247
sS'chang gung university'
p533
I443
sS'tokyo institute technology'
p534
I55
sS'san diego state university'
p535
I787
sS'waseda university'
p536
I200
sS'julius-maximilians-universitiat wiirzburg'
p537
I427
sS'universidad de salamanca'
p538
I681
sS'swansea university'
p539
I390
sS'gwangju institute science technology'
p540
I336
sS'brandeis university'
p541
I402
sS'universidad de monterrey'
p542
I808
sS'university mumbai'
p543
I892
sS'california institute technology'
p544
I4
sS'aalborg university'
p545
I373
sS'universitiu degli studi di pavia'
p546
I583
sS'philipps-universitiat marburg'
p547
I571
sS'university mississippi'
p548
I642
sS'universitat pompeu fabra'
p549
I285
sS'universitia paris descartes'
p550
I377
sS'university iowa'
p551
I393
sS'tsinghua university'
p552
I24
sS'university michigan'
p553
I22
sS'arizona state university'
p554
I221
sS'university eastern finland'
p555
I381
sS'university oregon'
p556
I593
sS'yamaguchi university'
p557
I914
sS'alexandru ioan cuza university'
p558
I708
sS'university guelph'
p559
I542
sS'university california san diego'
p560
I39
sS'hallym university'
p561
I607
sS'universitia lille 1 sciences et technologie'
p562
I540
sS'humboldt-universitiat zu berlin'
p563
I121
sS'politecnico di torino'
p564
I304
sS'imperial college london'
p565
I8
sS'east china university science technology'
p566
I474
sS'eindhoven university technology'
p567
I120
sS'kyung hee university'
p568
I264
sS'university science technology beijing'
p569
I595
sS'university haifa'
p570
I691
sS'university pennsylvania'
p571
I17
sS'university dhaka'
p572
I880
sS'university connecticut'
p573
I429
sS'east china normal university'
p574
I557
sS'jilin university'
p575
I494
sS'university helsinki'
p576
I90
sS'university groningen'
p577
I112
sS'seoul national university science technology'
p578
I788
sS'universitiu degli studi di genova'
p579
I849
sS'university bath'
p580
I158
sS'college william & mary'
p581
I556
sS'ecole polytechnique fiadiarale de lausanne'
p582
I13
sS'university bergen'
p583
I178
sS'aberystwyth university'
p584
I491
sS'arabian gulf university'
p585
I462
sS'american university sharjah'
p586
I441
sS'panjab university'
p587
I776
sS'concordia university'
p588
I464
sS'university macau'
p589
I545
sS'gunma university'
p590
I741
sS'universitiu degli studi di perugia'
p591
I850
sS'kent state university'
p592
I749
sS'london school economics political science'
p593
I37
sS'ucl'
p594
I6
sS'universitiat mannheim'
p595
I418
sS'university waikato'
p596
I323
sS'binghamton university suny'
p597
I722
sS'universidade federal de santa catarina'
p598
I839
sS'universidade federal de viiaosa'
p599
I841
sS'university canberra'
p600
I587
sS'university chicago'
p601
I9
sS'murdoch university'
p602
I516
sS'universidad central de venezuela'
p603
I679
sS'universidad de zaragoza'
p604
I487
sS'clark university'
p605
I473
sS'lingnan university'
p606
I610
sS'university jordan'
p607
I590
sS'charles darwin university'
p608
I553
sS'university texas austin'
p609
I66
sS'universidade estadual de londrina'
p610
I837
sS'universidade catolica portuguesa lisboa'
p611
I834
sS'osaka city university'
p612
I670
sS'university bern'
p613
I180
sS'universitiu degli studi di modena e reggio emilia'
p614
I684
sS'western sydney university'
p615
I600
sS'university kansas'
p616
I372
sS'universitiat konstanz'
p617
I352
sS'university york'
p618
I126
sS'diponegoro university'
p619
I732
sS'universidad latinoamericana de ciencia tecnologia costa rica'
p620
I819
sS'university colorado denver'
p621
I374
sS'york university'
p622
I461
sS'ecole normale supiarieure de lyon'
p623
I176
sS'national chung hsing university'
p624
I518
sS'khalifa university'
p625
I405
sS'keio university'
p626
I215
sS'chalmers university technology'
p627
I138
sS'university indonesia'
p628
I324
sS'universidad austral'
p629
I308
sS'pontificia universidad catolica del ecuador'
p630
I779
sS'renmin'
p631
I428
sS'universidade federal de minas gerais'
p632
I582
sS'university mons'
p633
I547
sS'university lisbon'
p634
I332
sS'moscow state institute international relations uo mgimo university'
p635
I350
sS'university north carolina chapel hill'
p636
I77
sS'university lausanne'
p637
I137
sS'dalian university technology'
p638
I481
sS'yonsei university'
p639
I111
sS'fudan university'
p640
I42
sS'kasetsart university'
p641
I746
sS'indiana university bloomington'
p642
I290
sS'university surrey'
p643
I260
sS'universiti utara malaysia'
p644
I869
sS'harbin institute technology'
p645
I277
sS'ural federal university'
p646
I647
sS'university california los angeles'
p647
I30
sS'temple university'
p648
I676
sS'universidade federal fluminense'
p649
I845
sS'boston university'
p650
I88
sS'm.o.auezov south kazakhstan state university'
p651
I611
sS'university baghdad'
p652
I638
sS'university calgary'
p653
I196
sS'utrecht university'
p654
I104
sS'university minnesota'
p655
I136
sS'university tsukuba'
p656
I224
sS'sogang university'
p657
I416
sS'koia university'
p658
I452
sS'universitiu di pisa'
p659
I440
sS'university rochester'
p660
I186
sS'university tampere'
p661
I549
sS'chiba university'
p662
I555
sS'tokyo university agriculture technology'
p663
I579
sS'north-west university'
p664
I770
sS'university hull'
p665
I589
sS'massachusetts institute technology'
p666
I0
sS'babes-bolyai university'
p667
I715
sS'taras shevchenko national university kyiv'
p668
I437
sS'universitia de lorraine'
p669
I859
sS'universitiat des saarlandes'
p670
I534
sS'johns hopkins university'
p671
I16
sS'technische universitiat dresden'
p672
I209
sS'kazan federal university'
p673
I510
sS'zhejiang university'
p674
I109
sS'shanghai jiao tong university'
p675
I60
sS'university saskatchewan'
p676
I480
sS'university california irvine'
p677
I155
sS'pontificia universidade catiolica rio de janeiro - puc - rio'
p678
I522
sS'sciences po paris'
p679
I219
sS'yokohama city university'
p680
I500
sS'wuhan university'
p681
I274
sS'singapore management university'
p682
I436
sS'linkiping university'
p683
I281
sS'boston college'
p684
I298
sS'umm al-qura university'
p685
I527
sS'national university singapore'
p686
I11
sS'carleton university'
p687
I552
sS'queen mary university london'
p688
I123
sS'kyushu university'
p689
I134
sS'clemson university'
p690
I727
sS"universitiu ca' foscari venezia"
p691
I846
sS'university johannesburg'
p692
I640
sS'university buffalo suny'
p693
I341
sS'university bahrain'
p694
I871
sS'university adelaide'
p695
I124
sS'university arizona'
p696
I232
sS'rice university'
p697
I89
sS'university southern denmark'
p698
I391
sS'university pittsburgh'
p699
I144
sS'tokyo metropolitan university'
p700
I477
sS'universidad de navarra'
p701
I244
sS'city university hong kong'
p702
I54
sS'university milano-bicocca'
p703
I694
sS'king abdul aziz university'
p704
I283
sS'vilnius university'
p705
I490
sS'harvard university'
p706
I2
sS'ewha womans university'
p707
I334
sS'lancaster university'
p708
I128
sS'universidade federal ceari'
p709
I842
sS"king's college london"
p710
I20
sS'seoul national university'
p711
I34
sS'ruprecht-karls-universitiat heidelberg'
p712
I71
sS'westfialische wilhelms-universitiat miinster'
p713
I294
sS'southern federal university'
p714
I576
sS'universitat de valencia'
p715
I585
sS'l.n. gumilyov eurasian national university'
p716
I345
sS'universitia grenoble-alpes'
p717
I206
sS'universitiat freiburg'
p718
I162
sS'university basel'
p719
I142
sS'university wollongong'
p720
I217
sS'kyoto university'
p721
I36
sS'beihang university'
p722
I430
sS'universiti kebangsaan malaysia'
p723
I303
sS'university kufa'
p724
I888
sS'university nebraska'
p725
I498
sS'universidad de palermo'
p726
I448
sS'airlangga university'
p727
I705
sS'university maryland baltimore county'
p728
I451
sS'university newcastle'
p729
I245
sS'university new south wales'
p730
I49
sS'khon kaen university'
p731
I751
sS'universidad nacional mayor de san marcos'
p732
I827
sS'goldsmiths university london'
p733
I424
sS'georgia institute technology'
p734
I70
sS'national taiwan university'
p735
I68
sS'universidad industrial de santander'
p736
I818
sS"king mongkut's university technology thonburi"
p737
I753
sS'ecole normale supiarieure de cachan'
p738
I263
sS'stony brook university'
p739
I389
sS'universidad de san francisco de quito'
p740
I811
sS'university nairobi'
p741
I893
sS'university plymouth'
p742
I696
sS'politiacnica de madrid'
p743
I572
sS'universidad de la habana'
p744
I804
sS'georg-august-universitiat gittingen'
p745
I177
sS'national chiao tung university'
p746
I173
sS'donetsk national university'
p747
I733
sS'saint-petersburg state university'
p748
I257
sS'university waterloo'
p749
I152
sS'massey university'
p750
I340
sS'university science technology china'
p751
I103
sS'robert gordon university'
p752
I795
sS'university wisconsin-madison'
p753
I53
sS'universitia catholique de louvain'
p754
I153
sS'universidad de talca'
p755
I812
sS'kaunas university technology'
p756
I747
sS'universidade federal de siao carlos'
p757
I683
sS'university massachusetts boston'
p758
I591
sS'chiang mai university'
p759
I554
sS'university washington'
p760
I58
sS'universidade estadual paulista ji lio de mesquita filho'
p761
I530
sS'universidade estado rio de janeiro'
p762
I836
sS'centralesupialec'
p763
I163
sS'universitiat wien'
p764
I154
sS'iran university science technology'
p765
I493
sS'universidad de san andrias'
p766
I529
sS'pontificia universidad catiolica de valparaiso'
p767
I616
sS'universidad de costa rica'
p768
I478
sS'korea university'
p769
I98
sS'technische universitiat miinchen'
p770
I59
sS'niigata university'
p771
I768
sS'university reading'
p772
I174
sS'universidad iberoamericana'
p773
I682
sS'universitiat frankfurt main'
p774
I265
sS'universitas gadjah mada'
p775
I532
sS'university auckland'
p776
I80
sS'university wyoming'
p777
I906
sS'georgia state university'
p778
I740
sS'university east london'
p779
I881
sS'university coimbra'
p780
I459
sS'howard university'
p781
I560
sS'university new mexico'
p782
I468
sS'cornell university'
p783
I15
sS'missouri university science technology'
p784
I515
sS'banaras hindu university'
p785
I717
sS'university karachi'
p786
I887
sS'king khalid university'
p787
I511
sS'hong kong polytechnic university'
p788
I110
sS'university hawaii muanoa'
p789
I343
sS'universidad de la repi blica'
p790
I805
sS'national yang ming university'
p791
I307
sS'pusan national university'
p792
I454
sS'university san diego'
p793
I898
sS'royal holloway university london'
p794
I234
sS'university bristol'
p795
I40
sS'kazakh national pedagogical university abai'
p796
I509
sS'masaryk university'
p797
I612
sS'universitiuae degli studi di palermo'
p798
I854
sS'mcmaster university'
p799
I149
sS'national chengchi university'
p800
I764
sS'dongguk university'
p801
I444
sS'north carolina state university'
p802
I276
sS'brno university technology'
p803
I653
sS'universidad de los andes colombia'
p804
I271
sS'universidad nacional de colombia'
p805
I268
sS'northeastern university'
p806
I360
sS'lincoln university'
p807
I342
sS'university florida'
p808
I185
sS'universitia paris ouest nanterre la diafense'
p809
I865
sS'indian institute technology madras'
p810
I248
sS'sichuan university'
p811
I574
sS'indian institute technology kharagpur'
p812
I312
sS'university portsmouth'
p813
I644
sS'universidad de chile'
p814
I199
sS'lebanese american university'
p815
I664
sS'christian-albrechts-universitiat zu kiel'
p816
I423
sS'middle east technical university'
p817
I475
sS'universidade nova de lisboa'
p818
I365
sS'national technical university kharkiv polytechnic institute'
p819
I765
sS'university college cork'
p820
I286
sS'ankara iiniversitesi'
p821
I710
sS'universidad autionoma metropolitana'
p822
I801
sS'university leicester'
p823
I239
sS'kazakh ablai khan university international relations world languages'
p824
I748
sS'bandung institute technology'
p825
I401
sS'james cook university'
p826
I339
sS'universitat politiocnica de catalunya'
p827
I321
sS'middlesex university'
p828
I613
sS'hong kong baptist university'
p829
I278
sS'catholic university korea'
p830
I495
sS'hiroshima university'
p831
I296
sS'belarusian national technical university'
p832
I720
sS'university albany suny'
p833
I686
sS'university denver'
p834
I690
sS'freie universitiat berlin'
p835
I122
sS'mcgill university'
p836
I29
sS'university south australia'
p837
I288
sS'universidad nacional del sur'
p838
I826
sS'ochanomizu university'
p839
I773
sS'university college dublin'
p840
I175
sS'shams university'
p841
I704
sS'university tulsa'
p842
I904
sS'istanbul university'
p843
I744
sS'university edinburgh'
p844
I18
sS'oregon state university'
p845
I453
sS'university tromso'
p846
I378
sS'universidad nacional de mar del plata'
p847
I823
sS'marquette university'
p848
I762
sS'universitiu degli studi di ferrara'
p849
I848
sS'aarhus university'
p850
I116
sS'sharif university technology'
p851
I435
sS'university toulouse uo jean jaurios'
p852
I907
sS'northumbria university newcastle'
p853
I769
sS'universidad nacional costa rica'
p854
I821
sS'chulalongkorn university'
p855
I251
sS'pontificia universidade catiolica de siao paulo'
p856
I521
sS'university porto'
p857
I322
sS'maastricht university'
p858
I172
sS'auburn university'
p859
I713
sS'johannes gutenberg universitiat mainz'
p860
I404
sS'southern methodist university'
p861
I793
sS'universitiu degli studi di milano'
p862
I369
sS'gazi iiniversitesi'
p863
I739
sS'tohoku university'
p864
I75
sS"xi'an jiaotong university"
p865
I317
sS'rheinisch-westfialische technische hochschule aachen'
p866
I145
sS'nanyang technological university'
p867
I12
sS'west university timisoara'
p868
I913
sS'university southern california'
p869
I135
sS'politecnico di milano'
p870
I182
sS'universidad anahuac'
p871
I678
sS'stockholm university'
p872
I195
sS'university cambridge'
p873
I3
sS'rudn university'
p874
I617
sS'university sydney'
p875
I47
sS'comenius university bratislava'
p876
I654
sS'tulane university'
p877
I526
sS'university alberta'
p878
I93
sS'universidad autionoma de nuevo leion'
p879
I799
sS'uppsala university'
p880
I100
sS'universidad de murcia'
p881
I809
sS'king fahd university petroleum & minerals'
p882
I189
sS'sultan qaboos university'
p883
I457
sS'universidad de granada'
p884
I528
sS'technische universitiat wien'
p885
I183
sS'tokai university'
p886
I796
sS'universiti teknologi malaysia'
p887
I287
sS'universidad politecnica de valencia'
p888
I439
sS'university georgia'
p889
I438
sS'universitia aix-marseille'
p890
I419
sS'universitiu degli studi di siena'
p891
I851
sS'universidad de las amiaricas puebla'
p892
I806
sS'university maryland college park'
p893
I131
sS'universidad de antioquia'
p894
I622
sS'national university science technology misis'
p895
I614
sS'university victoria'
p896
I325
sS'tufts university'
p897
I237
sS'smith college'
p898
I792
sS'university sussex'
p899
I188
sS'victoria university wellington'
p900
I229
sS'sepuluh nopember institute technology'
p901
I789
sS'keele university'
p902
I565
sS'universitiat bielefeld'
p903
I629
sS'national central university'
p904
I413
sS'eth zurich'
p905
I7
sS'chung-ang university'
p906
I385
sS'universitia de rennes 1'
p907
I632
sS'university strathclyde'
p908
I273
sS'universidad complutense de madrid'
p909
I238
sS'universitia de cergy-pontoise'
p910
I858
sS'universitiu degli studi di firenze'
p911
I458
sS'prince songkla university'
p912
I781
sS'far eastern federal university'
p913
I558
sS'wageningen university'
p914
I118
sS'ecole polytechnique paristech'
p915
I52
sS'university miami'
p916
I255
sS'universitiat erlangen-niirnberg'
p917
I272
s.